

Microchip MPLAB XC8 Assembler V2.35 build 20211206165544 
                                                                                               Sat Apr 30 21:01:37 2022

Microchip MPLAB XC8 C Compiler v2.35 (Free license) build 20211206165544 Og1 
     1                           	processor	16F887
     2                           	pagewidth 120
     3                           	opt	flic
     4                           	psect	cinit,global,class=CODE,merge=1,delta=2
     5                           	psect	bssBANK1,global,class=BANK1,space=1,delta=1,noexec
     6                           	psect	cstackBANK1,global,class=BANK1,space=1,delta=1,noexec
     7                           	psect	cstackCOMMON,global,class=COMMON,space=1,delta=1,noexec
     8                           	psect	cstackBANK0,global,class=BANK0,space=1,delta=1,noexec
     9                           	psect	maintext,global,class=CODE,split=1,delta=2
    10                           	psect	text1,local,class=CODE,merge=1,delta=2
    11                           	psect	text2,local,class=CODE,merge=1,delta=2
    12                           	psect	intentry,global,class=CODE,delta=2
    13                           	psect	text3,local,class=CODE,merge=1,delta=2
    14                           	psect	text4,local,class=CODE,merge=1,delta=2,group=1
    15                           	psect	text5,local,class=CODE,merge=1,delta=2,group=1
    16                           	psect	text6,local,class=CODE,merge=1,delta=2,group=1
    17                           	psect	text7,local,class=CODE,merge=1,delta=2,group=1
    18                           	psect	text8,local,class=CODE,merge=1,delta=2,group=1
    19                           	psect	text9,local,class=CODE,merge=1,delta=2,group=1
    20                           	psect	idloc,global,abs,ovrld,class=IDLOC,space=5,delta=2,noexec
    21                           	psect	config,global,abs,ovrld,class=CONFIG,space=4,delta=2,noexec
    22                           	dabs	1,0x7E,2
    23  0000                     
    24                           ; Version 2.40
    25                           ; Generated 17/11/2021 GMT
    26                           ; 
    27                           ; Copyright © 2021, Microchip Technology Inc. and its subsidiaries ("Microchip")
    28                           ; All rights reserved.
    29                           ; 
    30                           ; This software is developed by Microchip Technology Inc. and its subsidiaries ("Microch
      +                          ip").
    31                           ; 
    32                           ; Redistribution and use in source and binary forms, with or without modification, are
    33                           ; permitted provided that the following conditions are met:
    34                           ; 
    35                           ;     1. Redistributions of source code must retain the above copyright notice, this lis
      +                          t of
    36                           ;        conditions and the following disclaimer.
    37                           ; 
    38                           ;     2. Redistributions in binary form must reproduce the above copyright notice, this 
      +                          list
    39                           ;        of conditions and the following disclaimer in the documentation and/or other
    40                           ;        materials provided with the distribution. Publication is not required when
    41                           ;        this file is used in an embedded application.
    42                           ; 
    43                           ;     3. Microchip's name may not be used to endorse or promote products derived from th
      +                          is
    44                           ;        software without specific prior written permission.
    45                           ; 
    46                           ; THIS SOFTWARE IS PROVIDED BY MICROCHIP "AS IS" AND ANY EXPRESS OR IMPLIED WARRANTIES,
    47                           ; INCLUDING, BUT NOT LIMITED TO, THE IMPLIED WARRANTIES OF MERCHANTABILITY AND FITNESS F
      +                          OR
    48                           ; PURPOSE ARE DISCLAIMED.  IN NO EVENT SHALL MICROCHIP BE LIABLE FOR ANY DIRECT, INDIREC
      +                          T,
    49                           ; INCIDENTAL, SPECIAL, EXEMPLARY, OR CONSEQUENTIAL DAMAGES (INCLUDING BUT NOT LIMITED TO
    50                           ; PROCUREMENT OF SUBSTITUTE GOODS OR SERVICES; LOSS OF USE, DATA OR PROFITS; OR BUSINESS
    51                           ; INTERRUPTION) HOWSOEVER CAUSED AND ON ANY THEORY OF LIABILITY, WHETHER IN CONTRACT, ST
      +                          RICT
    52                           ; LIABILITY, OR TORT (INCLUDING NEGLIGENCE OR OTHERWISE) ARISING IN ANY WAY OUT OF THE U
      +                          SE OF
    53                           ; THIS SOFTWARE, EVEN IF ADVISED OF THE POSSIBILITY OF SUCH DAMAGE.
    54                           ; 
    55                           ; 
    56                           ; Code-generator required, PIC16F887 Definitions
    57                           ; 
    58                           ; SFR Addresses
    59  0000                     	;# 
    60  0001                     	;# 
    61  0002                     	;# 
    62  0003                     	;# 
    63  0004                     	;# 
    64  0005                     	;# 
    65  0006                     	;# 
    66  0007                     	;# 
    67  0008                     	;# 
    68  0009                     	;# 
    69  000A                     	;# 
    70  000B                     	;# 
    71  000C                     	;# 
    72  000D                     	;# 
    73  000E                     	;# 
    74  000E                     	;# 
    75  000F                     	;# 
    76  0010                     	;# 
    77  0011                     	;# 
    78  0012                     	;# 
    79  0013                     	;# 
    80  0014                     	;# 
    81  0015                     	;# 
    82  0015                     	;# 
    83  0016                     	;# 
    84  0017                     	;# 
    85  0018                     	;# 
    86  0019                     	;# 
    87  001A                     	;# 
    88  001B                     	;# 
    89  001B                     	;# 
    90  001C                     	;# 
    91  001D                     	;# 
    92  001E                     	;# 
    93  001F                     	;# 
    94  0081                     	;# 
    95  0085                     	;# 
    96  0086                     	;# 
    97  0087                     	;# 
    98  0088                     	;# 
    99  0089                     	;# 
   100  008C                     	;# 
   101  008D                     	;# 
   102  008E                     	;# 
   103  008F                     	;# 
   104  0090                     	;# 
   105  0091                     	;# 
   106  0092                     	;# 
   107  0093                     	;# 
   108  0093                     	;# 
   109  0093                     	;# 
   110  0094                     	;# 
   111  0095                     	;# 
   112  0096                     	;# 
   113  0097                     	;# 
   114  0098                     	;# 
   115  0099                     	;# 
   116  009A                     	;# 
   117  009B                     	;# 
   118  009C                     	;# 
   119  009D                     	;# 
   120  009E                     	;# 
   121  009F                     	;# 
   122  0105                     	;# 
   123  0107                     	;# 
   124  0108                     	;# 
   125  0109                     	;# 
   126  010C                     	;# 
   127  010C                     	;# 
   128  010D                     	;# 
   129  010E                     	;# 
   130  010F                     	;# 
   131  0185                     	;# 
   132  0187                     	;# 
   133  0188                     	;# 
   134  0189                     	;# 
   135  018C                     	;# 
   136  018D                     	;# 
   137  0000                     	;# 
   138  0001                     	;# 
   139  0002                     	;# 
   140  0003                     	;# 
   141  0004                     	;# 
   142  0005                     	;# 
   143  0006                     	;# 
   144  0007                     	;# 
   145  0008                     	;# 
   146  0009                     	;# 
   147  000A                     	;# 
   148  000B                     	;# 
   149  000C                     	;# 
   150  000D                     	;# 
   151  000E                     	;# 
   152  000E                     	;# 
   153  000F                     	;# 
   154  0010                     	;# 
   155  0011                     	;# 
   156  0012                     	;# 
   157  0013                     	;# 
   158  0014                     	;# 
   159  0015                     	;# 
   160  0015                     	;# 
   161  0016                     	;# 
   162  0017                     	;# 
   163  0018                     	;# 
   164  0019                     	;# 
   165  001A                     	;# 
   166  001B                     	;# 
   167  001B                     	;# 
   168  001C                     	;# 
   169  001D                     	;# 
   170  001E                     	;# 
   171  001F                     	;# 
   172  0081                     	;# 
   173  0085                     	;# 
   174  0086                     	;# 
   175  0087                     	;# 
   176  0088                     	;# 
   177  0089                     	;# 
   178  008C                     	;# 
   179  008D                     	;# 
   180  008E                     	;# 
   181  008F                     	;# 
   182  0090                     	;# 
   183  0091                     	;# 
   184  0092                     	;# 
   185  0093                     	;# 
   186  0093                     	;# 
   187  0093                     	;# 
   188  0094                     	;# 
   189  0095                     	;# 
   190  0096                     	;# 
   191  0097                     	;# 
   192  0098                     	;# 
   193  0099                     	;# 
   194  009A                     	;# 
   195  009B                     	;# 
   196  009C                     	;# 
   197  009D                     	;# 
   198  009E                     	;# 
   199  009F                     	;# 
   200  0105                     	;# 
   201  0107                     	;# 
   202  0108                     	;# 
   203  0109                     	;# 
   204  010C                     	;# 
   205  010C                     	;# 
   206  010D                     	;# 
   207  010E                     	;# 
   208  010F                     	;# 
   209  0185                     	;# 
   210  0187                     	;# 
   211  0188                     	;# 
   212  0189                     	;# 
   213  018C                     	;# 
   214  018D                     	;# 
   215  0012                     _T2CONbits	set	18
   216  001D                     _CCP2CON	set	29
   217  0017                     _CCP1CON	set	23
   218  0007                     _PORTC	set	7
   219  0005                     _PORTA	set	5
   220  0001                     _TMR0	set	1
   221  000B                     _INTCONbits	set	11
   222  0007                     _PORTCbits	set	7
   223  001D                     _CCP2CONbits	set	29
   224  001B                     _CCPR2L	set	27
   225  0017                     _CCP1CONbits	set	23
   226  0015                     _CCPR1L	set	21
   227  001E                     _ADRESH	set	30
   228  001F                     _ADCON0bits	set	31
   229  000C                     _PIR1bits	set	12
   230  005A                     _T0IF	set	90
   231  0081                     _OPTION_REGbits	set	129
   232  008C                     _PIE1bits	set	140
   233  0092                     _PR2	set	146
   234  0087                     _TRISCbits	set	135
   235  009F                     _ADCON1bits	set	159
   236  008F                     _OSCCONbits	set	143
   237  0085                     _TRISA	set	133
   238  0189                     _ANSELH	set	393
   239  0188                     _ANSEL	set	392
   240                           
   241                           	psect	cinit
   242  0013                     start_initialization:	
   243                           ; #config settings
   244                           
   245  0013                     __initialization:
   246                           
   247                           ; Clear objects allocated to BANK1
   248  0013  1683               	bsf	3,5	;RP0=1, select bank1
   249  0014  1303               	bcf	3,6	;RP1=0, select bank1
   250  0015  01B2               	clrf	__pbssBANK1& (0+127)
   251  0016  01B3               	clrf	(__pbssBANK1+1)& (0+127)
   252  0017  01B4               	clrf	(__pbssBANK1+2)& (0+127)
   253  0018  01B5               	clrf	(__pbssBANK1+3)& (0+127)
   254  0019  01B6               	clrf	(__pbssBANK1+4)& (0+127)
   255  001A  01B7               	clrf	(__pbssBANK1+5)& (0+127)
   256  001B  01B8               	clrf	(__pbssBANK1+6)& (0+127)
   257  001C                     end_of_initialization:	
   258                           ;End of C runtime variable initialization code
   259                           
   260  001C                     __end_of__initialization:
   261  001C  0183               	clrf	3
   262  001D  120A  158A  2C40   	ljmp	_main	;jump to C main() function
   263                           
   264                           	psect	bssBANK1
   265  00B2                     __pbssBANK1:
   266  00B2                     _CCPRx:
   267  00B2                     	ds	2
   268  00B4                     _CCPR:
   269  00B4                     	ds	2
   270  00B6                     _adl:
   271  00B6                     	ds	2
   272  00B8                     _conta:
   273  00B8                     	ds	1
   274                           
   275                           	psect	cstackBANK1
   276  00A0                     __pcstackBANK1:
   277  00A0                     ??___fltol:
   278                           
   279                           ; 1 bytes @ 0x0
   280  00A0                     	ds	5
   281  00A5                     ?_map:
   282  00A5                     map@x0:	
   283                           ; 2 bytes @ 0x5
   284                           
   285                           
   286                           ; 1 bytes @ 0x5
   287  00A5                     	ds	1
   288  00A6                     map@x1:
   289                           
   290                           ; 1 bytes @ 0x6
   291  00A6                     	ds	1
   292  00A7                     map@y0:
   293                           
   294                           ; 2 bytes @ 0x7
   295  00A7                     	ds	2
   296  00A9                     map@y1:
   297                           
   298                           ; 2 bytes @ 0x9
   299  00A9                     	ds	2
   300  00AB                     ??_isr:
   301                           
   302                           ; 1 bytes @ 0xB
   303  00AB                     	ds	5
   304  00B0                     ??_setup:
   305                           
   306                           ; 1 bytes @ 0x10
   307  00B0                     	ds	1
   308  00B1                     ??_main:
   309                           
   310                           ; 1 bytes @ 0x11
   311  00B1                     	ds	1
   312                           
   313                           	psect	cstackCOMMON
   314  0070                     __pcstackCOMMON:
   315  0070                     ?_setup:
   316  0070                     ?_isr:	
   317                           ; 1 bytes @ 0x0
   318                           
   319  0070                     ?_main:	
   320                           ; 1 bytes @ 0x0
   321                           
   322  0070                     ?__Umul8_16:	
   323                           ; 1 bytes @ 0x0
   324                           
   325  0070                     ?___xxtofl:	
   326                           ; 2 bytes @ 0x0
   327                           
   328  0070                     __Umul8_16@multiplicand:	
   329                           ; 4 bytes @ 0x0
   330                           
   331  0070                     ___xxtofl@val:	
   332                           ; 1 bytes @ 0x0
   333                           
   334                           
   335                           ; 4 bytes @ 0x0
   336  0070                     	ds	2
   337  0072                     ??__Umul8_16:
   338                           
   339                           ; 1 bytes @ 0x2
   340  0072                     	ds	2
   341  0074                     ??___xxtofl:
   342  0074                     __Umul8_16@product:	
   343                           ; 1 bytes @ 0x4
   344                           
   345                           
   346                           ; 2 bytes @ 0x4
   347  0074                     	ds	2
   348  0076                     __Umul8_16@word_mpld:
   349                           
   350                           ; 2 bytes @ 0x6
   351  0076                     	ds	2
   352  0078                     __Umul8_16@multiplier:
   353  0078                     ___xxtofl@sign:	
   354                           ; 1 bytes @ 0x8
   355                           
   356                           
   357                           ; 1 bytes @ 0x8
   358  0078                     	ds	1
   359  0079                     ___xxtofl@exp:
   360                           
   361                           ; 1 bytes @ 0x9
   362  0079                     	ds	1
   363  007A                     ___xxtofl@arg:
   364                           
   365                           ; 4 bytes @ 0xA
   366  007A                     	ds	4
   367  007E                     ??_map:
   368                           
   369                           	psect	cstackBANK0
   370  0020                     __pcstackBANK0:	
   371                           ; 1 bytes @ 0xE
   372                           
   373  0020                     ?___fldiv:
   374  0020                     ___fldiv@a:	
   375                           ; 4 bytes @ 0x0
   376                           
   377                           
   378                           ; 4 bytes @ 0x0
   379  0020                     	ds	4
   380  0024                     ___fldiv@b:
   381                           
   382                           ; 4 bytes @ 0x4
   383  0024                     	ds	4
   384  0028                     ??___fldiv:
   385                           
   386                           ; 1 bytes @ 0x8
   387  0028                     	ds	5
   388  002D                     ___fldiv@rem:
   389                           
   390                           ; 4 bytes @ 0xD
   391  002D                     	ds	4
   392  0031                     ___fldiv@sign:
   393                           
   394                           ; 1 bytes @ 0x11
   395  0031                     	ds	1
   396  0032                     ___fldiv@new_exp:
   397                           
   398                           ; 2 bytes @ 0x12
   399  0032                     	ds	2
   400  0034                     ___fldiv@grs:
   401                           
   402                           ; 4 bytes @ 0x14
   403  0034                     	ds	4
   404  0038                     ___fldiv@bexp:
   405                           
   406                           ; 1 bytes @ 0x18
   407  0038                     	ds	1
   408  0039                     ___fldiv@aexp:
   409                           
   410                           ; 1 bytes @ 0x19
   411  0039                     	ds	1
   412  003A                     ?___flmul:
   413  003A                     ___flmul@b:	
   414                           ; 4 bytes @ 0x1A
   415                           
   416                           
   417                           ; 4 bytes @ 0x1A
   418  003A                     	ds	4
   419  003E                     ___flmul@a:
   420                           
   421                           ; 4 bytes @ 0x1E
   422  003E                     	ds	4
   423  0042                     ??___flmul:
   424                           
   425                           ; 1 bytes @ 0x22
   426  0042                     	ds	5
   427  0047                     ___flmul@sign:
   428                           
   429                           ; 1 bytes @ 0x27
   430  0047                     	ds	1
   431  0048                     ___flmul@grs:
   432                           
   433                           ; 4 bytes @ 0x28
   434  0048                     	ds	4
   435  004C                     ___flmul@aexp:
   436                           
   437                           ; 1 bytes @ 0x2C
   438  004C                     	ds	1
   439  004D                     ___flmul@bexp:
   440                           
   441                           ; 1 bytes @ 0x2D
   442  004D                     	ds	1
   443  004E                     ___flmul@prod:
   444                           
   445                           ; 4 bytes @ 0x2E
   446  004E                     	ds	4
   447  0052                     ___flmul@temp:
   448                           
   449                           ; 2 bytes @ 0x32
   450  0052                     	ds	2
   451  0054                     ?___fladd:
   452  0054                     ___fladd@b:	
   453                           ; 4 bytes @ 0x34
   454                           
   455                           
   456                           ; 4 bytes @ 0x34
   457  0054                     	ds	4
   458  0058                     ___fladd@a:
   459                           
   460                           ; 4 bytes @ 0x38
   461  0058                     	ds	4
   462  005C                     ??___fladd:
   463                           
   464                           ; 1 bytes @ 0x3C
   465  005C                     	ds	8
   466  0064                     ___fladd@signs:
   467                           
   468                           ; 1 bytes @ 0x44
   469  0064                     	ds	1
   470  0065                     ___fladd@aexp:
   471                           
   472                           ; 1 bytes @ 0x45
   473  0065                     	ds	1
   474  0066                     ___fladd@bexp:
   475                           
   476                           ; 1 bytes @ 0x46
   477  0066                     	ds	1
   478  0067                     ___fladd@grs:
   479                           
   480                           ; 1 bytes @ 0x47
   481  0067                     	ds	1
   482  0068                     ?___fltol:
   483  0068                     ___fltol@f1:	
   484                           ; 4 bytes @ 0x48
   485                           
   486                           
   487                           ; 4 bytes @ 0x48
   488  0068                     	ds	4
   489  006C                     ___fltol@sign1:
   490                           
   491                           ; 1 bytes @ 0x4C
   492  006C                     	ds	1
   493  006D                     ___fltol@exp1:
   494                           
   495                           ; 1 bytes @ 0x4D
   496  006D                     	ds	1
   497  006E                     map@x:
   498                           
   499                           ; 1 bytes @ 0x4E
   500  006E                     	ds	1
   501                           
   502                           	psect	maintext
   503  0C40                     __pmaintext:	
   504 ;;
   505 ;;Main: autosize = 0, tempsize = 1, incstack = 0, save=0
   506 ;;
   507 ;; *************** function _main *****************
   508 ;; Defined at:
   509 ;;		line 85 in file "newmain.c"
   510 ;; Parameters:    Size  Location     Type
   511 ;;		None
   512 ;; Auto vars:     Size  Location     Type
   513 ;;		None
   514 ;; Return value:  Size  Location     Type
   515 ;;                  1    wreg      void 
   516 ;; Registers used:
   517 ;;		wreg, status,2, status,0, pclath, cstack
   518 ;; Tracked objects:
   519 ;;		On entry : B00/0
   520 ;;		On exit  : 0/0
   521 ;;		Unchanged: 0/0
   522 ;; Data sizes:     COMMON   BANK0   BANK1   BANK3   BANK2
   523 ;;      Params:         0       0       0       0       0
   524 ;;      Locals:         0       0       0       0       0
   525 ;;      Temps:          0       0       1       0       0
   526 ;;      Totals:         0       0       1       0       0
   527 ;;Total ram usage:        1 bytes
   528 ;; Hardware stack levels required when called: 5
   529 ;; This function calls:
   530 ;;		_setup
   531 ;; This function is called by:
   532 ;;		Startup code after reset
   533 ;; This function uses a non-reentrant model
   534 ;;
   535                           
   536  0C40                     _main:	
   537                           ;psect for function _main
   538                           
   539  0C40                     l2063:	
   540                           ;incstack = 0
   541                           ; Regs used in _main: [wreg+status,2+status,0+pclath+cstack]
   542                           
   543                           
   544                           ;newmain.c: 86:     setup();
   545  0C40  120A  158A  2498  120A  158A  	fcall	_setup
   546  0C45                     l2065:
   547                           
   548                           ;newmain.c: 88:         if(ADCON0bits.GO == 0){
   549  0C45  1283               	bcf	3,5	;RP0=0, select bank0
   550  0C46  1303               	bcf	3,6	;RP1=0, select bank0
   551  0C47  189F               	btfsc	31,1	;volatile
   552  0C48  2C4A               	goto	u2971
   553  0C49  2C4B               	goto	u2970
   554  0C4A                     u2971:
   555  0C4A  2C45               	goto	l2065
   556  0C4B                     u2970:
   557  0C4B                     l2067:
   558                           
   559                           ;newmain.c: 89:             if(ADCON0bits.CHS == 0){
   560  0C4B  0C1F               	rrf	31,w	;volatile
   561  0C4C  1683               	bsf	3,5	;RP0=1, select bank1
   562  0C4D  1303               	bcf	3,6	;RP1=0, select bank1
   563  0C4E  00B1               	movwf	??_main^(0+128)
   564  0C4F  0C31               	rrf	??_main^(0+128),w
   565  0C50  390F               	andlw	15
   566  0C51  3A00               	xorlw	0
   567  0C52  1D03               	skipz
   568  0C53  2C55               	goto	u2981
   569  0C54  2C56               	goto	u2980
   570  0C55                     u2981:
   571  0C55  2C64               	goto	l2073
   572  0C56                     u2980:
   573  0C56                     l2069:
   574                           
   575                           ;newmain.c: 90:                 ADCON0bits.CHS = 0b0001;
   576  0C56  1283               	bcf	3,5	;RP0=0, select bank0
   577  0C57  1303               	bcf	3,6	;RP1=0, select bank0
   578  0C58  081F               	movf	31,w	;volatile
   579  0C59  39C3               	andlw	-61
   580  0C5A  3804               	iorlw	4
   581  0C5B  009F               	movwf	31	;volatile
   582  0C5C                     l2071:
   583                           
   584                           ;newmain.c: 91:                 _delay((unsigned long)((40)*(4000000/4000000.0)));
   585  0C5C  300C               	movlw	12
   586  0C5D  1683               	bsf	3,5	;RP0=1, select bank1
   587  0C5E  1303               	bcf	3,6	;RP1=0, select bank1
   588  0C5F  00B1               	movwf	??_main^(0+128)
   589  0C60                     u3017:
   590  0C60  0BB1               	decfsz	??_main^(0+128),f
   591  0C61  2C60               	goto	u3017
   592  0C62  0000               	nop
   593                           
   594                           ;newmain.c: 92:             }
   595  0C63  2C8A               	goto	l2085
   596  0C64                     l2073:
   597  0C64  1283               	bcf	3,5	;RP0=0, select bank0
   598  0C65  1303               	bcf	3,6	;RP1=0, select bank0
   599  0C66  0C1F               	rrf	31,w	;volatile
   600  0C67  1683               	bsf	3,5	;RP0=1, select bank1
   601  0C68  1303               	bcf	3,6	;RP1=0, select bank1
   602  0C69  00B1               	movwf	??_main^(0+128)
   603  0C6A  0C31               	rrf	??_main^(0+128),w
   604  0C6B  390F               	andlw	15
   605  0C6C  3A01               	xorlw	1
   606  0C6D  1D03               	skipz
   607  0C6E  2C70               	goto	u2991
   608  0C6F  2C71               	goto	u2990
   609  0C70                     u2991:
   610  0C70  2C78               	goto	l2079
   611  0C71                     u2990:
   612  0C71                     l2075:
   613                           
   614                           ;newmain.c: 94:                 ADCON0bits.CHS = 0b0010;
   615  0C71  1283               	bcf	3,5	;RP0=0, select bank0
   616  0C72  1303               	bcf	3,6	;RP1=0, select bank0
   617  0C73  081F               	movf	31,w	;volatile
   618  0C74  39C3               	andlw	-61
   619  0C75  3808               	iorlw	8
   620  0C76  009F               	movwf	31	;volatile
   621  0C77  2C5C               	goto	l2071
   622  0C78                     l2079:
   623  0C78  1283               	bcf	3,5	;RP0=0, select bank0
   624  0C79  1303               	bcf	3,6	;RP1=0, select bank0
   625  0C7A  0C1F               	rrf	31,w	;volatile
   626  0C7B  1683               	bsf	3,5	;RP0=1, select bank1
   627  0C7C  1303               	bcf	3,6	;RP1=0, select bank1
   628  0C7D  00B1               	movwf	??_main^(0+128)
   629  0C7E  0C31               	rrf	??_main^(0+128),w
   630  0C7F  390F               	andlw	15
   631  0C80  3A02               	xorlw	2
   632  0C81  1D03               	skipz
   633  0C82  2C84               	goto	u3001
   634  0C83  2C85               	goto	u3000
   635  0C84                     u3001:
   636  0C84  2C8A               	goto	l2085
   637  0C85                     u3000:
   638  0C85                     l2081:
   639                           
   640                           ;newmain.c: 98:                 ADCON0bits.CHS = 0b0000;
   641  0C85  30C3               	movlw	-61
   642  0C86  1283               	bcf	3,5	;RP0=0, select bank0
   643  0C87  1303               	bcf	3,6	;RP1=0, select bank0
   644  0C88  059F               	andwf	31,f	;volatile
   645  0C89  2C5C               	goto	l2071
   646  0C8A                     l2085:
   647                           
   648                           ;newmain.c: 101:             _delay((unsigned long)((40)*(4000000/4000000.0)));
   649  0C8A  300C               	movlw	12
   650  0C8B  1683               	bsf	3,5	;RP0=1, select bank1
   651  0C8C  1303               	bcf	3,6	;RP1=0, select bank1
   652  0C8D  00B1               	movwf	??_main^(0+128)
   653  0C8E                     u3027:
   654  0C8E  0BB1               	decfsz	??_main^(0+128),f
   655  0C8F  2C8E               	goto	u3027
   656  0C90  0000               	nop
   657  0C91                     l2087:
   658                           
   659                           ;newmain.c: 102:             ADCON0bits.GO = 1;
   660  0C91  1283               	bcf	3,5	;RP0=0, select bank0
   661  0C92  1303               	bcf	3,6	;RP1=0, select bank0
   662  0C93  149F               	bsf	31,1	;volatile
   663  0C94  2C45               	goto	l2065
   664  0C95  120A  118A  2810   	ljmp	start
   665  0C98                     __end_of_main:
   666                           
   667                           	psect	text1
   668  0C98                     __ptext1:	
   669 ;; *************** function _setup *****************
   670 ;; Defined at:
   671 ;;		line 109 in file "newmain.c"
   672 ;; Parameters:    Size  Location     Type
   673 ;;		None
   674 ;; Auto vars:     Size  Location     Type
   675 ;;		None
   676 ;; Return value:  Size  Location     Type
   677 ;;                  1    wreg      void 
   678 ;; Registers used:
   679 ;;		wreg, status,2, status,0
   680 ;; Tracked objects:
   681 ;;		On entry : 0/0
   682 ;;		On exit  : 0/0
   683 ;;		Unchanged: 0/0
   684 ;; Data sizes:     COMMON   BANK0   BANK1   BANK3   BANK2
   685 ;;      Params:         0       0       0       0       0
   686 ;;      Locals:         0       0       0       0       0
   687 ;;      Temps:          0       0       1       0       0
   688 ;;      Totals:         0       0       1       0       0
   689 ;;Total ram usage:        1 bytes
   690 ;; Hardware stack levels used: 1
   691 ;; Hardware stack levels required when called: 4
   692 ;; This function calls:
   693 ;;		Nothing
   694 ;; This function is called by:
   695 ;;		_main
   696 ;; This function uses a non-reentrant model
   697 ;;
   698                           
   699  0C98                     _setup:	
   700                           ;psect for function _setup
   701                           
   702  0C98                     l1965:	
   703                           ;incstack = 0
   704                           ; Regs used in _setup: [wreg+status,2+status,0]
   705                           
   706                           
   707                           ;newmain.c: 110:     ANSEL = 0b111;
   708  0C98  3007               	movlw	7
   709  0C99  1683               	bsf	3,5	;RP0=1, select bank3
   710  0C9A  1703               	bsf	3,6	;RP1=1, select bank3
   711  0C9B  0088               	movwf	8	;volatile
   712  0C9C                     l1967:
   713                           
   714                           ;newmain.c: 111:     ANSELH = 0;
   715  0C9C  0189               	clrf	9	;volatile
   716  0C9D                     l1969:
   717                           
   718                           ;newmain.c: 112:     TRISA = 0b111;
   719  0C9D  3007               	movlw	7
   720  0C9E  1683               	bsf	3,5	;RP0=1, select bank1
   721  0C9F  1303               	bcf	3,6	;RP1=0, select bank1
   722  0CA0  0085               	movwf	5	;volatile
   723                           
   724                           ;newmain.c: 116:     PORTA = 0;
   725  0CA1  1283               	bcf	3,5	;RP0=0, select bank0
   726  0CA2  1303               	bcf	3,6	;RP1=0, select bank0
   727  0CA3  0185               	clrf	5	;volatile
   728                           
   729                           ;newmain.c: 118:     PORTC = 0;
   730  0CA4  0187               	clrf	7	;volatile
   731  0CA5                     l1971:
   732                           
   733                           ;newmain.c: 121:     OSCCONbits.IRCF = 0b110;
   734  0CA5  1683               	bsf	3,5	;RP0=1, select bank1
   735  0CA6  1303               	bcf	3,6	;RP1=0, select bank1
   736  0CA7  080F               	movf	15,w	;volatile
   737  0CA8  398F               	andlw	-113
   738  0CA9  3860               	iorlw	96
   739  0CAA  008F               	movwf	15	;volatile
   740  0CAB                     l1973:
   741                           
   742                           ;newmain.c: 122:     OSCCONbits.SCS = 1;
   743  0CAB  140F               	bsf	15,0	;volatile
   744  0CAC                     l1975:
   745                           
   746                           ;newmain.c: 125:     ADCON0bits.ADCS = 0b10;
   747  0CAC  1283               	bcf	3,5	;RP0=0, select bank0
   748  0CAD  1303               	bcf	3,6	;RP1=0, select bank0
   749  0CAE  081F               	movf	31,w	;volatile
   750  0CAF  393F               	andlw	-193
   751  0CB0  3880               	iorlw	128
   752  0CB1  009F               	movwf	31	;volatile
   753  0CB2                     l1977:
   754                           
   755                           ;newmain.c: 126:     ADCON1bits.VCFG0 = 0;
   756  0CB2  1683               	bsf	3,5	;RP0=1, select bank1
   757  0CB3  1303               	bcf	3,6	;RP1=0, select bank1
   758  0CB4  121F               	bcf	31,4	;volatile
   759  0CB5                     l1979:
   760                           
   761                           ;newmain.c: 127:     ADCON1bits.VCFG1 = 0;
   762  0CB5  129F               	bcf	31,5	;volatile
   763  0CB6                     l1981:
   764                           
   765                           ;newmain.c: 128:     ADCON0bits.CHS = 0b0000;
   766  0CB6  30C3               	movlw	-61
   767  0CB7  1283               	bcf	3,5	;RP0=0, select bank0
   768  0CB8  1303               	bcf	3,6	;RP1=0, select bank0
   769  0CB9  059F               	andwf	31,f	;volatile
   770  0CBA                     l1983:
   771                           
   772                           ;newmain.c: 129:     ADCON0bits.CHS = 0b0001;
   773  0CBA  081F               	movf	31,w	;volatile
   774  0CBB  39C3               	andlw	-61
   775  0CBC  3804               	iorlw	4
   776  0CBD  009F               	movwf	31	;volatile
   777  0CBE                     l1985:
   778                           
   779                           ;newmain.c: 130:     ADCON1bits.ADFM = 0;
   780  0CBE  1683               	bsf	3,5	;RP0=1, select bank1
   781  0CBF  1303               	bcf	3,6	;RP1=0, select bank1
   782  0CC0  139F               	bcf	31,7	;volatile
   783  0CC1                     l1987:
   784                           
   785                           ;newmain.c: 131:     ADCON0bits.ADON = 1;
   786  0CC1  1283               	bcf	3,5	;RP0=0, select bank0
   787  0CC2  1303               	bcf	3,6	;RP1=0, select bank0
   788  0CC3  141F               	bsf	31,0	;volatile
   789  0CC4                     l1989:
   790                           
   791                           ;newmain.c: 132:     _delay((unsigned long)((40)*(4000000/4000000.0)));
   792  0CC4  300C               	movlw	12
   793  0CC5  1683               	bsf	3,5	;RP0=1, select bank1
   794  0CC6  1303               	bcf	3,6	;RP1=0, select bank1
   795  0CC7  00B0               	movwf	??_setup^(0+128)
   796  0CC8                     u3037:
   797  0CC8  0BB0               	decfsz	??_setup^(0+128),f
   798  0CC9  2CC8               	goto	u3037
   799  0CCA  0000               	nop
   800  0CCB                     l1991:
   801                           
   802                           ;newmain.c: 135:     TRISCbits.TRISC2 = 1;
   803  0CCB  1683               	bsf	3,5	;RP0=1, select bank1
   804  0CCC  1303               	bcf	3,6	;RP1=0, select bank1
   805  0CCD  1507               	bsf	7,2	;volatile
   806  0CCE                     l1993:
   807                           
   808                           ;newmain.c: 136:     TRISCbits.TRISC1 = 1;
   809  0CCE  1487               	bsf	7,1	;volatile
   810  0CCF                     l1995:
   811                           
   812                           ;newmain.c: 137:     PR2 = 249;
   813  0CCF  30F9               	movlw	249
   814  0CD0  0092               	movwf	18	;volatile
   815                           
   816                           ;newmain.c: 140:     CCP1CON = 0;
   817  0CD1  1283               	bcf	3,5	;RP0=0, select bank0
   818  0CD2  1303               	bcf	3,6	;RP1=0, select bank0
   819  0CD3  0197               	clrf	23	;volatile
   820                           
   821                           ;newmain.c: 141:     CCP2CON = 0;
   822  0CD4  019D               	clrf	29	;volatile
   823  0CD5                     l1997:
   824                           
   825                           ;newmain.c: 142:     CCP1CONbits.P1M = 0;
   826  0CD5  303F               	movlw	-193
   827  0CD6  0597               	andwf	23,f	;volatile
   828  0CD7                     l1999:
   829                           
   830                           ;newmain.c: 143:     CCP1CONbits.CCP1M = 0b1100;
   831  0CD7  0817               	movf	23,w	;volatile
   832  0CD8  39F0               	andlw	-16
   833  0CD9  380C               	iorlw	12
   834  0CDA  0097               	movwf	23	;volatile
   835  0CDB                     l2001:
   836                           
   837                           ;newmain.c: 144:     CCP2CONbits.CCP2M = 0b1100;
   838  0CDB  081D               	movf	29,w	;volatile
   839  0CDC  39F0               	andlw	-16
   840  0CDD  380C               	iorlw	12
   841  0CDE  009D               	movwf	29	;volatile
   842  0CDF                     l2003:
   843                           
   844                           ;newmain.c: 146:     CCPR1L = 250>>2;
   845  0CDF  303E               	movlw	62
   846  0CE0  0095               	movwf	21	;volatile
   847  0CE1                     l2005:
   848                           
   849                           ;newmain.c: 147:     CCP1CONbits.DC1B = 250 & 0b11;
   850  0CE1  0817               	movf	23,w	;volatile
   851  0CE2  39CF               	andlw	-49
   852  0CE3  3820               	iorlw	32
   853  0CE4  0097               	movwf	23	;volatile
   854  0CE5                     l2007:
   855                           
   856                           ;newmain.c: 148:     CCPR1L = 250>>2;
   857  0CE5  303E               	movlw	62
   858  0CE6  0095               	movwf	21	;volatile
   859  0CE7                     l2009:
   860                           
   861                           ;newmain.c: 149:     CCP2CONbits.DC2B0 = 250 & 0b01;
   862  0CE7  121D               	bcf	29,4	;volatile
   863  0CE8                     l2011:
   864                           
   865                           ;newmain.c: 150:     CCP2CONbits.DC2B1 = 250 & 0b10;
   866  0CE8  129D               	bcf	29,5	;volatile
   867  0CE9                     l2013:
   868                           
   869                           ;newmain.c: 152:     PIR1bits.TMR2IF = 0;
   870  0CE9  108C               	bcf	12,1	;volatile
   871  0CEA                     l2015:
   872                           
   873                           ;newmain.c: 153:     T2CONbits.T2CKPS = 0b11;
   874  0CEA  3003               	movlw	3
   875  0CEB  0492               	iorwf	18,f	;volatile
   876  0CEC                     l2017:
   877                           
   878                           ;newmain.c: 154:     T2CONbits.TMR2ON = 1;
   879  0CEC  1512               	bsf	18,2	;volatile
   880  0CED                     l95:	
   881                           ;newmain.c: 155:     while(!PIR1bits.TMR2IF);
   882                           
   883  0CED  1C8C               	btfss	12,1	;volatile
   884  0CEE  2CF0               	goto	u2901
   885  0CEF  2CF1               	goto	u2900
   886  0CF0                     u2901:
   887  0CF0  2CED               	goto	l95
   888  0CF1                     u2900:
   889  0CF1                     l97:
   890                           
   891                           ;newmain.c: 156:     PIR1bits.TMR2IF = 0;
   892  0CF1  108C               	bcf	12,1	;volatile
   893                           
   894                           ;newmain.c: 158:     TRISCbits.TRISC2 = 0;
   895  0CF2  1683               	bsf	3,5	;RP0=1, select bank1
   896  0CF3  1303               	bcf	3,6	;RP1=0, select bank1
   897  0CF4  1107               	bcf	7,2	;volatile
   898                           
   899                           ;newmain.c: 159:     TRISCbits.TRISC1 = 0;
   900  0CF5  1087               	bcf	7,1	;volatile
   901                           
   902                           ;newmain.c: 160:     TRISCbits.TRISC3 = 0;
   903  0CF6  1187               	bcf	7,3	;volatile
   904                           
   905                           ;newmain.c: 163:     PIR1bits.ADIF = 0;
   906  0CF7  1283               	bcf	3,5	;RP0=0, select bank0
   907  0CF8  1303               	bcf	3,6	;RP1=0, select bank0
   908  0CF9  130C               	bcf	12,6	;volatile
   909                           
   910                           ;newmain.c: 164:     PIE1bits.ADIE = 1;
   911  0CFA  1683               	bsf	3,5	;RP0=1, select bank1
   912  0CFB  1303               	bcf	3,6	;RP1=0, select bank1
   913  0CFC  170C               	bsf	12,6	;volatile
   914                           
   915                           ;newmain.c: 165:     INTCONbits.PEIE = 1;
   916  0CFD  170B               	bsf	11,6	;volatile
   917                           
   918                           ;newmain.c: 166:     INTCONbits.GIE = 1;
   919  0CFE  178B               	bsf	11,7	;volatile
   920                           
   921                           ;newmain.c: 168:     OPTION_REGbits.T0CS = 0;
   922  0CFF  1281               	bcf	1,5	;volatile
   923                           
   924                           ;newmain.c: 169:     OPTION_REGbits.PSA = 0;
   925  0D00  1181               	bcf	1,3	;volatile
   926                           
   927                           ;newmain.c: 170:     OPTION_REGbits.PS0 = 0;
   928  0D01  1001               	bcf	1,0	;volatile
   929                           
   930                           ;newmain.c: 171:     OPTION_REGbits.PS1 = 0;
   931  0D02  1081               	bcf	1,1	;volatile
   932                           
   933                           ;newmain.c: 172:     OPTION_REGbits.PS2 = 0;
   934  0D03  1101               	bcf	1,2	;volatile
   935                           
   936                           ;newmain.c: 174:     INTCONbits.T0IF = 0;
   937  0D04  110B               	bcf	11,2	;volatile
   938  0D05                     l2019:
   939                           
   940                           ;newmain.c: 175:     TMR0 = 249;
   941  0D05  30F9               	movlw	249
   942  0D06  1283               	bcf	3,5	;RP0=0, select bank0
   943  0D07  1303               	bcf	3,6	;RP1=0, select bank0
   944  0D08  0081               	movwf	1	;volatile
   945  0D09                     l2021:
   946                           
   947                           ;newmain.c: 177:     INTCONbits.T0IE = 1;
   948  0D09  168B               	bsf	11,5	;volatile
   949  0D0A                     l2023:
   950                           
   951                           ;newmain.c: 178:     INTCONbits.T0IF = 0;
   952  0D0A  110B               	bcf	11,2	;volatile
   953  0D0B                     l98:
   954  0D0B  0008               	return
   955  0D0C                     __end_of_setup:
   956                           
   957                           	psect	text2
   958  0F14                     __ptext2:	
   959 ;; *************** function _isr *****************
   960 ;; Defined at:
   961 ;;		line 47 in file "newmain.c"
   962 ;; Parameters:    Size  Location     Type
   963 ;;		None
   964 ;; Auto vars:     Size  Location     Type
   965 ;;		None
   966 ;; Return value:  Size  Location     Type
   967 ;;                  1    wreg      void 
   968 ;; Registers used:
   969 ;;		wreg, status,2, status,0, btemp+1, pclath, cstack
   970 ;; Tracked objects:
   971 ;;		On entry : 0/0
   972 ;;		On exit  : 0/0
   973 ;;		Unchanged: 0/0
   974 ;; Data sizes:     COMMON   BANK0   BANK1   BANK3   BANK2
   975 ;;      Params:         0       0       0       0       0
   976 ;;      Locals:         0       0       0       0       0
   977 ;;      Temps:          0       0       5       0       0
   978 ;;      Totals:         0       0       5       0       0
   979 ;;Total ram usage:        5 bytes
   980 ;; Hardware stack levels used: 1
   981 ;; Hardware stack levels required when called: 3
   982 ;; This function calls:
   983 ;;		_map
   984 ;; This function is called by:
   985 ;;		Interrupt level 1
   986 ;; This function uses a non-reentrant model
   987 ;;
   988                           
   989  0F14                     _isr:	
   990                           ;psect for function _isr
   991                           
   992  0F14                     i1l2025:
   993                           
   994                           ;newmain.c: 48:     if(PIR1bits.ADIF){
   995  0F14  1283               	bcf	3,5	;RP0=0, select bank0
   996  0F15  1303               	bcf	3,6	;RP1=0, select bank0
   997  0F16  1F0C               	btfss	12,6	;volatile
   998  0F17  2F19               	goto	u291_21
   999  0F18  2F1A               	goto	u291_20
  1000  0F19                     u291_21:
  1001  0F19  2FD4               	goto	i1l2051
  1002  0F1A                     u291_20:
  1003  0F1A                     i1l2027:
  1004                           
  1005                           ;newmain.c: 49:         if(ADCON0bits.CHS == 0){
  1006  0F1A  0C1F               	rrf	31,w	;volatile
  1007  0F1B  1683               	bsf	3,5	;RP0=1, select bank1
  1008  0F1C  1303               	bcf	3,6	;RP1=0, select bank1
  1009  0F1D  00AB               	movwf	??_isr^(0+128)
  1010  0F1E  0C2B               	rrf	??_isr^(0+128),w
  1011  0F1F  390F               	andlw	15
  1012  0F20  3A00               	xorlw	0
  1013  0F21  1D03               	skipz
  1014  0F22  2F24               	goto	u292_21
  1015  0F23  2F25               	goto	u292_20
  1016  0F24                     u292_21:
  1017  0F24  2F60               	goto	i1l2035
  1018  0F25                     u292_20:
  1019  0F25                     i1l2029:
  1020                           
  1021                           ;newmain.c: 50:             CCPR = map(ADRESH, 0, 255, 100, 650);
  1022  0F25  01A5               	clrf	map@x0^(0+128)
  1023  0F26  30FF               	movlw	255
  1024  0F27  00AB               	movwf	??_isr^(0+128)
  1025  0F28  082B               	movf	??_isr^(0+128),w
  1026  0F29  00A6               	movwf	map@x1^(0+128)
  1027  0F2A  3064               	movlw	100
  1028  0F2B  00A7               	movwf	map@y0^(0+128)
  1029  0F2C  3000               	movlw	0
  1030  0F2D  00A8               	movwf	(map@y0^(0+128)+1)
  1031  0F2E  308A               	movlw	138
  1032  0F2F  00A9               	movwf	map@y1^(0+128)
  1033  0F30  3002               	movlw	2
  1034  0F31  00AA               	movwf	(map@y1^(0+128)+1)
  1035  0F32  1283               	bcf	3,5	;RP0=0, select bank0
  1036  0F33  1303               	bcf	3,6	;RP1=0, select bank0
  1037  0F34  081E               	movf	30,w	;volatile
  1038  0F35  120A  158A  25A8  120A  158A  	fcall	_map
  1039  0F3A  1683               	bsf	3,5	;RP0=1, select bank1
  1040  0F3B  1303               	bcf	3,6	;RP1=0, select bank1
  1041  0F3C  0826               	movf	(?_map+1)^(0+128),w
  1042  0F3D  00B5               	movwf	(_CCPR+1)^(0+128)
  1043  0F3E  0825               	movf	?_map^(0+128),w
  1044  0F3F  00B4               	movwf	_CCPR^(0+128)
  1045  0F40                     i1l2031:
  1046                           
  1047                           ;newmain.c: 51:             CCPR1L = (uint8_t)(CCPR>>2);
  1048  0F40  0835               	movf	(_CCPR+1)^(0+128),w
  1049  0F41  00AC               	movwf	(??_isr^(0+128)+1)
  1050  0F42  0834               	movf	_CCPR^(0+128),w
  1051  0F43  00AB               	movwf	??_isr^(0+128)
  1052  0F44  1003               	clrc
  1053  0F45  0CAC               	rrf	(??_isr^(0+128)+1),f
  1054  0F46  0CAB               	rrf	??_isr^(0+128),f
  1055  0F47  1003               	clrc
  1056  0F48  0CAC               	rrf	(??_isr^(0+128)+1),f
  1057  0F49  0CAB               	rrf	??_isr^(0+128),f
  1058  0F4A  082B               	movf	??_isr^(0+128),w
  1059  0F4B  1283               	bcf	3,5	;RP0=0, select bank0
  1060  0F4C  1303               	bcf	3,6	;RP1=0, select bank0
  1061  0F4D  0095               	movwf	21	;volatile
  1062  0F4E                     i1l2033:
  1063                           
  1064                           ;newmain.c: 52:             CCP1CONbits.DC1B = CCPR & 0b11;
  1065  0F4E  1683               	bsf	3,5	;RP0=1, select bank1
  1066  0F4F  1303               	bcf	3,6	;RP1=0, select bank1
  1067  0F50  0834               	movf	_CCPR^(0+128),w
  1068  0F51  3903               	andlw	3
  1069  0F52  00AB               	movwf	??_isr^(0+128)
  1070  0F53  0EAB               	swapf	??_isr^(0+128),f
  1071  0F54  1283               	bcf	3,5	;RP0=0, select bank0
  1072  0F55  1303               	bcf	3,6	;RP1=0, select bank0
  1073  0F56  0817               	movf	23,w	;volatile
  1074  0F57  1683               	bsf	3,5	;RP0=1, select bank1
  1075  0F58  1303               	bcf	3,6	;RP1=0, select bank1
  1076  0F59  062B               	xorwf	??_isr^(0+128),w
  1077  0F5A  39CF               	andlw	-49
  1078  0F5B  062B               	xorwf	??_isr^(0+128),w
  1079  0F5C  1283               	bcf	3,5	;RP0=0, select bank0
  1080  0F5D  1303               	bcf	3,6	;RP1=0, select bank0
  1081  0F5E  0097               	movwf	23	;volatile
  1082                           
  1083                           ;newmain.c: 53:         }
  1084  0F5F  2FD2               	goto	i1l2049
  1085  0F60                     i1l2035:
  1086  0F60  1283               	bcf	3,5	;RP0=0, select bank0
  1087  0F61  1303               	bcf	3,6	;RP1=0, select bank0
  1088  0F62  0C1F               	rrf	31,w	;volatile
  1089  0F63  1683               	bsf	3,5	;RP0=1, select bank1
  1090  0F64  1303               	bcf	3,6	;RP1=0, select bank1
  1091  0F65  00AB               	movwf	??_isr^(0+128)
  1092  0F66  0C2B               	rrf	??_isr^(0+128),w
  1093  0F67  390F               	andlw	15
  1094  0F68  3A01               	xorlw	1
  1095  0F69  1D03               	skipz
  1096  0F6A  2F6C               	goto	u293_21
  1097  0F6B  2F6D               	goto	u293_20
  1098  0F6C                     u293_21:
  1099  0F6C  2FBA               	goto	i1l2045
  1100  0F6D                     u293_20:
  1101  0F6D                     i1l2037:
  1102                           
  1103                           ;newmain.c: 55:             CCPRx = map(ADRESH, 0, 255, 100, 650);
  1104  0F6D  01A5               	clrf	map@x0^(0+128)
  1105  0F6E  30FF               	movlw	255
  1106  0F6F  00AB               	movwf	??_isr^(0+128)
  1107  0F70  082B               	movf	??_isr^(0+128),w
  1108  0F71  00A6               	movwf	map@x1^(0+128)
  1109  0F72  3064               	movlw	100
  1110  0F73  00A7               	movwf	map@y0^(0+128)
  1111  0F74  3000               	movlw	0
  1112  0F75  00A8               	movwf	(map@y0^(0+128)+1)
  1113  0F76  308A               	movlw	138
  1114  0F77  00A9               	movwf	map@y1^(0+128)
  1115  0F78  3002               	movlw	2
  1116  0F79  00AA               	movwf	(map@y1^(0+128)+1)
  1117  0F7A  1283               	bcf	3,5	;RP0=0, select bank0
  1118  0F7B  1303               	bcf	3,6	;RP1=0, select bank0
  1119  0F7C  081E               	movf	30,w	;volatile
  1120  0F7D  120A  158A  25A8  120A  158A  	fcall	_map
  1121  0F82  1683               	bsf	3,5	;RP0=1, select bank1
  1122  0F83  1303               	bcf	3,6	;RP1=0, select bank1
  1123  0F84  0826               	movf	(?_map+1)^(0+128),w
  1124  0F85  00B3               	movwf	(_CCPRx+1)^(0+128)
  1125  0F86  0825               	movf	?_map^(0+128),w
  1126  0F87  00B2               	movwf	_CCPRx^(0+128)
  1127  0F88                     i1l2039:
  1128                           
  1129                           ;newmain.c: 56:             CCPR2L = (uint8_t)(CCPRx>>2);
  1130  0F88  0833               	movf	(_CCPRx+1)^(0+128),w
  1131  0F89  00AC               	movwf	(??_isr^(0+128)+1)
  1132  0F8A  0832               	movf	_CCPRx^(0+128),w
  1133  0F8B  00AB               	movwf	??_isr^(0+128)
  1134  0F8C  1003               	clrc
  1135  0F8D  0CAC               	rrf	(??_isr^(0+128)+1),f
  1136  0F8E  0CAB               	rrf	??_isr^(0+128),f
  1137  0F8F  1003               	clrc
  1138  0F90  0CAC               	rrf	(??_isr^(0+128)+1),f
  1139  0F91  0CAB               	rrf	??_isr^(0+128),f
  1140  0F92  082B               	movf	??_isr^(0+128),w
  1141  0F93  1283               	bcf	3,5	;RP0=0, select bank0
  1142  0F94  1303               	bcf	3,6	;RP1=0, select bank0
  1143  0F95  009B               	movwf	27	;volatile
  1144  0F96                     i1l2041:
  1145                           
  1146                           ;newmain.c: 57:             CCP2CONbits.DC2B0 = CCPRx & 0b01;
  1147  0F96  1683               	bsf	3,5	;RP0=1, select bank1
  1148  0F97  1303               	bcf	3,6	;RP1=0, select bank1
  1149  0F98  0832               	movf	_CCPRx^(0+128),w
  1150  0F99  3901               	andlw	1
  1151  0F9A  00AB               	movwf	??_isr^(0+128)
  1152  0F9B  0EAB               	swapf	??_isr^(0+128),f
  1153  0F9C  1283               	bcf	3,5	;RP0=0, select bank0
  1154  0F9D  1303               	bcf	3,6	;RP1=0, select bank0
  1155  0F9E  081D               	movf	29,w	;volatile
  1156  0F9F  1683               	bsf	3,5	;RP0=1, select bank1
  1157  0FA0  1303               	bcf	3,6	;RP1=0, select bank1
  1158  0FA1  062B               	xorwf	??_isr^(0+128),w
  1159  0FA2  39EF               	andlw	-17
  1160  0FA3  062B               	xorwf	??_isr^(0+128),w
  1161  0FA4  1283               	bcf	3,5	;RP0=0, select bank0
  1162  0FA5  1303               	bcf	3,6	;RP1=0, select bank0
  1163  0FA6  009D               	movwf	29	;volatile
  1164  0FA7                     i1l2043:
  1165                           
  1166                           ;newmain.c: 58:             CCP2CONbits.DC2B1 = CCPRx & 0b10;
  1167  0FA7  1683               	bsf	3,5	;RP0=1, select bank1
  1168  0FA8  1303               	bcf	3,6	;RP1=0, select bank1
  1169  0FA9  0832               	movf	_CCPRx^(0+128),w
  1170  0FAA  3902               	andlw	2
  1171  0FAB  00AB               	movwf	??_isr^(0+128)
  1172  0FAC  0EAB               	swapf	??_isr^(0+128),f
  1173  0FAD  0DAB               	rlf	??_isr^(0+128),f
  1174  0FAE  1283               	bcf	3,5	;RP0=0, select bank0
  1175  0FAF  1303               	bcf	3,6	;RP1=0, select bank0
  1176  0FB0  081D               	movf	29,w	;volatile
  1177  0FB1  1683               	bsf	3,5	;RP0=1, select bank1
  1178  0FB2  1303               	bcf	3,6	;RP1=0, select bank1
  1179  0FB3  062B               	xorwf	??_isr^(0+128),w
  1180  0FB4  39DF               	andlw	-33
  1181  0FB5  062B               	xorwf	??_isr^(0+128),w
  1182  0FB6  1283               	bcf	3,5	;RP0=0, select bank0
  1183  0FB7  1303               	bcf	3,6	;RP1=0, select bank0
  1184  0FB8  009D               	movwf	29	;volatile
  1185                           
  1186                           ;newmain.c: 59:         }
  1187  0FB9  2FD2               	goto	i1l2049
  1188  0FBA                     i1l2045:
  1189  0FBA  1283               	bcf	3,5	;RP0=0, select bank0
  1190  0FBB  1303               	bcf	3,6	;RP1=0, select bank0
  1191  0FBC  0C1F               	rrf	31,w	;volatile
  1192  0FBD  1683               	bsf	3,5	;RP0=1, select bank1
  1193  0FBE  1303               	bcf	3,6	;RP1=0, select bank1
  1194  0FBF  00AB               	movwf	??_isr^(0+128)
  1195  0FC0  0C2B               	rrf	??_isr^(0+128),w
  1196  0FC1  390F               	andlw	15
  1197  0FC2  3A02               	xorlw	2
  1198  0FC3  1D03               	skipz
  1199  0FC4  2FC6               	goto	u294_21
  1200  0FC5  2FC7               	goto	u294_20
  1201  0FC6                     u294_21:
  1202  0FC6  2FD2               	goto	i1l2049
  1203  0FC7                     u294_20:
  1204  0FC7                     i1l2047:
  1205                           
  1206                           ;newmain.c: 61:             adl = ADRESH;
  1207  0FC7  1283               	bcf	3,5	;RP0=0, select bank0
  1208  0FC8  1303               	bcf	3,6	;RP1=0, select bank0
  1209  0FC9  081E               	movf	30,w	;volatile
  1210  0FCA  1683               	bsf	3,5	;RP0=1, select bank1
  1211  0FCB  1303               	bcf	3,6	;RP1=0, select bank1
  1212  0FCC  00AB               	movwf	??_isr^(0+128)
  1213  0FCD  01AC               	clrf	(??_isr^(0+128)+1)
  1214  0FCE  082B               	movf	??_isr^(0+128),w
  1215  0FCF  00B6               	movwf	_adl^(0+128)
  1216  0FD0  082C               	movf	(??_isr+1)^(0+128),w
  1217  0FD1  00B7               	movwf	(_adl+1)^(0+128)
  1218  0FD2                     i1l2049:
  1219                           
  1220                           ;newmain.c: 64:         PIR1bits.ADIF = 0;
  1221  0FD2  1283               	bcf	3,5	;RP0=0, select bank0
  1222  0FD3  130C               	bcf	12,6	;volatile
  1223  0FD4                     i1l2051:
  1224                           
  1225                           ;newmain.c: 67:     if(T0IF){
  1226  0FD4  1D0B               	btfss	11,2	;volatile
  1227  0FD5  2FD7               	goto	u295_21
  1228  0FD6  2FD8               	goto	u295_20
  1229  0FD7                     u295_21:
  1230  0FD7  2FF5               	goto	i1l78
  1231  0FD8                     u295_20:
  1232  0FD8                     i1l2053:
  1233                           
  1234                           ;newmain.c: 69:         conta++;
  1235  0FD8  3001               	movlw	1
  1236  0FD9  1683               	bsf	3,5	;RP0=1, select bank1
  1237  0FDA  1303               	bcf	3,6	;RP1=0, select bank1
  1238  0FDB  00AB               	movwf	??_isr^(0+128)
  1239  0FDC  082B               	movf	??_isr^(0+128),w
  1240  0FDD  07B8               	addwf	_conta^(0+128),f
  1241  0FDE                     i1l2055:
  1242                           
  1243                           ;newmain.c: 71:         if (conta <= adl){
  1244  0FDE  0837               	movf	(_adl+1)^(0+128),w
  1245  0FDF  3A80               	xorlw	128
  1246  0FE0  00AB               	movwf	??_isr^(0+128)
  1247  0FE1  3080               	movlw	128
  1248  0FE2  022B               	subwf	??_isr^(0+128),w
  1249  0FE3  1D03               	skipz
  1250  0FE4  2FE7               	goto	u296_25
  1251  0FE5  0838               	movf	_conta^(0+128),w
  1252  0FE6  0236               	subwf	_adl^(0+128),w
  1253  0FE7                     u296_25:
  1254  0FE7  1C03               	skipc
  1255  0FE8  2FEA               	goto	u296_21
  1256  0FE9  2FEB               	goto	u296_20
  1257  0FEA                     u296_21:
  1258  0FEA  2FEF               	goto	i1l76
  1259  0FEB                     u296_20:
  1260  0FEB                     i1l2057:
  1261                           
  1262                           ;newmain.c: 72:             PORTCbits.RC3 = 1;
  1263  0FEB  1283               	bcf	3,5	;RP0=0, select bank0
  1264  0FEC  1303               	bcf	3,6	;RP1=0, select bank0
  1265  0FED  1587               	bsf	7,3	;volatile
  1266                           
  1267                           ;newmain.c: 73:         }
  1268  0FEE  2FF2               	goto	i1l77
  1269  0FEF                     i1l76:	
  1270                           ;newmain.c: 74:         else {
  1271                           
  1272                           
  1273                           ;newmain.c: 75:             PORTCbits.RC3 = 0;
  1274  0FEF  1283               	bcf	3,5	;RP0=0, select bank0
  1275  0FF0  1303               	bcf	3,6	;RP1=0, select bank0
  1276  0FF1  1187               	bcf	7,3	;volatile
  1277  0FF2                     i1l77:	
  1278                           ;newmain.c: 76:         }
  1279                           
  1280                           
  1281                           ;newmain.c: 77:         INTCONbits.T0IF = 0;
  1282  0FF2  110B               	bcf	11,2	;volatile
  1283  0FF3                     i1l2059:
  1284                           
  1285                           ;newmain.c: 78:         TMR0 = 249;
  1286  0FF3  30F9               	movlw	249
  1287  0FF4  0081               	movwf	1	;volatile
  1288  0FF5                     i1l78:
  1289  0FF5  1683               	bsf	3,5	;RP0=1, select bank1
  1290  0FF6  1303               	bcf	3,6	;RP1=0, select bank1
  1291  0FF7  082F               	movf	(??_isr+4)^(0+128),w
  1292  0FF8  00FF               	movwf	btemp+1
  1293  0FF9  082E               	movf	(??_isr+3)^(0+128),w
  1294  0FFA  008A               	movwf	10
  1295  0FFB  0E2D               	swapf	(??_isr+2)^(0+128),w
  1296  0FFC  0083               	movwf	3
  1297  0FFD  0EFE               	swapf	btemp,f
  1298  0FFE  0E7E               	swapf	btemp,w
  1299  0FFF  0009               	retfie
  1300  1000                     __end_of_isr:
  1301                           
  1302                           	psect	intentry
  1303  0004                     __pintentry:	
  1304                           ;incstack = 0
  1305                           ; Regs used in _isr: [wreg+status,2+status,0+btemp+1+pclath+cstack]
  1306                           
  1307  0004                     interrupt_function:
  1308  007E                     saved_w	set	btemp
  1309  0004  00FE               	movwf	btemp
  1310  0005  0E03               	swapf	3,w
  1311  0006  1683               	bsf	3,5	;RP0=1, select bank1
  1312  0007  1303               	bcf	3,6	;RP1=0, select bank1
  1313  0008  00AD               	movwf	(??_isr+2)^(0+128)
  1314  0009  080A               	movf	10,w
  1315  000A  00AE               	movwf	(??_isr+3)^(0+128)
  1316  000B  087F               	movf	btemp+1,w
  1317  000C  00AF               	movwf	(??_isr+4)^(0+128)
  1318  000D  120A  158A  2F14   	ljmp	_isr
  1319                           
  1320                           	psect	text3
  1321  0DA8                     __ptext3:	
  1322 ;; *************** function _map *****************
  1323 ;; Defined at:
  1324 ;;		line 182 in file "newmain.c"
  1325 ;; Parameters:    Size  Location     Type
  1326 ;;  x               1    wreg     unsigned char 
  1327 ;;  x0              1    5[BANK1 ] unsigned char 
  1328 ;;  x1              1    6[BANK1 ] unsigned char 
  1329 ;;  y0              2    7[BANK1 ] unsigned short 
  1330 ;;  y1              2    9[BANK1 ] unsigned short 
  1331 ;; Auto vars:     Size  Location     Type
  1332 ;;  x               1   78[BANK0 ] unsigned char 
  1333 ;; Return value:  Size  Location     Type
  1334 ;;                  2    5[BANK1 ] unsigned short 
  1335 ;; Registers used:
  1336 ;;		wreg, status,2, status,0, btemp+1, pclath, cstack
  1337 ;; Tracked objects:
  1338 ;;		On entry : 0/0
  1339 ;;		On exit  : 0/0
  1340 ;;		Unchanged: 0/0
  1341 ;; Data sizes:     COMMON   BANK0   BANK1   BANK3   BANK2
  1342 ;;      Params:         0       0       6       0       0
  1343 ;;      Locals:         0       1       0       0       0
  1344 ;;      Temps:          0       0       0       0       0
  1345 ;;      Totals:         0       1       6       0       0
  1346 ;;Total ram usage:        7 bytes
  1347 ;; Hardware stack levels used: 1
  1348 ;; Hardware stack levels required when called: 2
  1349 ;; This function calls:
  1350 ;;		___fladd
  1351 ;;		___fldiv
  1352 ;;		___flmul
  1353 ;;		___fltol
  1354 ;;		___xxtofl
  1355 ;; This function is called by:
  1356 ;;		_isr
  1357 ;; This function uses a non-reentrant model
  1358 ;;
  1359                           
  1360  0DA8                     _map:	
  1361                           ;psect for function _map
  1362                           
  1363                           
  1364                           ;incstack = 0
  1365                           ; Regs used in _map: [wreg+status,2+status,0+btemp+1+pclath+cstack]
  1366                           ;map@x stored from wreg
  1367  0DA8  1283               	bcf	3,5	;RP0=0, select bank0
  1368  0DA9  1303               	bcf	3,6	;RP1=0, select bank0
  1369  0DAA  00EE               	movwf	map@x
  1370  0DAB                     i1l1961:
  1371                           
  1372                           ;newmain.c: 182: unsigned short map(uint8_t x, uint8_t x0, uint8_t x1,;newmain.c: 183:  
      +                                     unsigned short y0, unsigned short y1){;newmain.c: 184:     return (unsigned s
      +                          hort)(y0+((float)(y1-y0)/(x1-x0))*(x-x0));
  1373  0DAB  1683               	bsf	3,5	;RP0=1, select bank1
  1374  0DAC  1303               	bcf	3,6	;RP1=0, select bank1
  1375  0DAD  0827               	movf	map@y0^(0+128),w
  1376  0DAE  00F0               	movwf	___xxtofl@val
  1377  0DAF  0828               	movf	(map@y0+1)^(0+128),w
  1378  0DB0  00F1               	movwf	___xxtofl@val+1
  1379  0DB1  01F2               	clrf	___xxtofl@val+2
  1380  0DB2  01F3               	clrf	___xxtofl@val+3
  1381  0DB3  3000               	movlw	0
  1382  0DB4  120A  158A  265A  120A  158A  	fcall	___xxtofl
  1383  0DB9  0873               	movf	?___xxtofl+3,w
  1384  0DBA  1283               	bcf	3,5	;RP0=0, select bank0
  1385  0DBB  1303               	bcf	3,6	;RP1=0, select bank0
  1386  0DBC  00DB               	movwf	___fladd@a+3
  1387  0DBD  0872               	movf	?___xxtofl+2,w
  1388  0DBE  00DA               	movwf	___fladd@a+2
  1389  0DBF  0871               	movf	?___xxtofl+1,w
  1390  0DC0  00D9               	movwf	___fladd@a+1
  1391  0DC1  0870               	movf	?___xxtofl,w
  1392  0DC2  00D8               	movwf	___fladd@a
  1393  0DC3  1683               	bsf	3,5	;RP0=1, select bank1
  1394  0DC4  1303               	bcf	3,6	;RP1=0, select bank1
  1395  0DC5  0827               	movf	map@y0^(0+128),w
  1396  0DC6  0229               	subwf	map@y1^(0+128),w
  1397  0DC7  00F0               	movwf	___xxtofl@val
  1398  0DC8  0828               	movf	(map@y0+1)^(0+128),w
  1399  0DC9  1C03               	skipc
  1400  0DCA  0A28               	incf	(map@y0+1)^(0+128),w
  1401  0DCB  022A               	subwf	(map@y1+1)^(0+128),w
  1402  0DCC  00F1               	movwf	___xxtofl@val+1
  1403  0DCD  01F2               	clrf	___xxtofl@val+2
  1404  0DCE  01F3               	clrf	___xxtofl@val+3
  1405  0DCF  3000               	movlw	0
  1406  0DD0  120A  158A  265A  120A  158A  	fcall	___xxtofl
  1407  0DD5  0873               	movf	?___xxtofl+3,w
  1408  0DD6  1283               	bcf	3,5	;RP0=0, select bank0
  1409  0DD7  1303               	bcf	3,6	;RP1=0, select bank0
  1410  0DD8  00A7               	movwf	___fldiv@b+3
  1411  0DD9  0872               	movf	?___xxtofl+2,w
  1412  0DDA  00A6               	movwf	___fldiv@b+2
  1413  0DDB  0871               	movf	?___xxtofl+1,w
  1414  0DDC  00A5               	movwf	___fldiv@b+1
  1415  0DDD  0870               	movf	?___xxtofl,w
  1416  0DDE  00A4               	movwf	___fldiv@b
  1417  0DDF  1683               	bsf	3,5	;RP0=1, select bank1
  1418  0DE0  1303               	bcf	3,6	;RP1=0, select bank1
  1419  0DE1  0825               	movf	map@x0^(0+128),w
  1420  0DE2  0226               	subwf	map@x1^(0+128),w
  1421  0DE3  00F0               	movwf	___xxtofl@val
  1422  0DE4  01F1               	clrf	___xxtofl@val+1
  1423  0DE5  1C03               	skipc
  1424  0DE6  03F1               	decf	___xxtofl@val+1,f
  1425  0DE7  01F2               	clrf	___xxtofl@val+2
  1426  0DE8  1BF1               	btfsc	___xxtofl@val+1,7
  1427  0DE9  03F2               	decf	___xxtofl@val+2,f
  1428  0DEA  0872               	movf	___xxtofl@val+2,w
  1429  0DEB  00F3               	movwf	___xxtofl@val+3
  1430  0DEC  3001               	movlw	1
  1431  0DED  120A  158A  265A  120A  158A  	fcall	___xxtofl
  1432  0DF2  0873               	movf	?___xxtofl+3,w
  1433  0DF3  1283               	bcf	3,5	;RP0=0, select bank0
  1434  0DF4  1303               	bcf	3,6	;RP1=0, select bank0
  1435  0DF5  00A3               	movwf	___fldiv@a+3
  1436  0DF6  0872               	movf	?___xxtofl+2,w
  1437  0DF7  00A2               	movwf	___fldiv@a+2
  1438  0DF8  0871               	movf	?___xxtofl+1,w
  1439  0DF9  00A1               	movwf	___fldiv@a+1
  1440  0DFA  0870               	movf	?___xxtofl,w
  1441  0DFB  00A0               	movwf	___fldiv@a
  1442  0DFC  120A  118A  2609  120A  158A  	fcall	___fldiv
  1443  0E01  1283               	bcf	3,5	;RP0=0, select bank0
  1444  0E02  1303               	bcf	3,6	;RP1=0, select bank0
  1445  0E03  0823               	movf	?___fldiv+3,w
  1446  0E04  00C1               	movwf	___flmul@a+3
  1447  0E05  0822               	movf	?___fldiv+2,w
  1448  0E06  00C0               	movwf	___flmul@a+2
  1449  0E07  0821               	movf	?___fldiv+1,w
  1450  0E08  00BF               	movwf	___flmul@a+1
  1451  0E09  0820               	movf	?___fldiv,w
  1452  0E0A  00BE               	movwf	___flmul@a
  1453  0E0B  1683               	bsf	3,5	;RP0=1, select bank1
  1454  0E0C  1303               	bcf	3,6	;RP1=0, select bank1
  1455  0E0D  0825               	movf	map@x0^(0+128),w
  1456  0E0E  1283               	bcf	3,5	;RP0=0, select bank0
  1457  0E0F  1303               	bcf	3,6	;RP1=0, select bank0
  1458  0E10  026E               	subwf	map@x,w
  1459  0E11  00F0               	movwf	___xxtofl@val
  1460  0E12  01F1               	clrf	___xxtofl@val+1
  1461  0E13  1C03               	skipc
  1462  0E14  03F1               	decf	___xxtofl@val+1,f
  1463  0E15  01F2               	clrf	___xxtofl@val+2
  1464  0E16  1BF1               	btfsc	___xxtofl@val+1,7
  1465  0E17  03F2               	decf	___xxtofl@val+2,f
  1466  0E18  0872               	movf	___xxtofl@val+2,w
  1467  0E19  00F3               	movwf	___xxtofl@val+3
  1468  0E1A  3001               	movlw	1
  1469  0E1B  120A  158A  265A  120A  158A  	fcall	___xxtofl
  1470  0E20  0873               	movf	?___xxtofl+3,w
  1471  0E21  1283               	bcf	3,5	;RP0=0, select bank0
  1472  0E22  1303               	bcf	3,6	;RP1=0, select bank0
  1473  0E23  00BD               	movwf	___flmul@b+3
  1474  0E24  0872               	movf	?___xxtofl+2,w
  1475  0E25  00BC               	movwf	___flmul@b+2
  1476  0E26  0871               	movf	?___xxtofl+1,w
  1477  0E27  00BB               	movwf	___flmul@b+1
  1478  0E28  0870               	movf	?___xxtofl,w
  1479  0E29  00BA               	movwf	___flmul@b
  1480  0E2A  120A  118A  2020  120A  158A  	fcall	___flmul
  1481  0E2F  1283               	bcf	3,5	;RP0=0, select bank0
  1482  0E30  1303               	bcf	3,6	;RP1=0, select bank0
  1483  0E31  083D               	movf	?___flmul+3,w
  1484  0E32  00D7               	movwf	___fladd@b+3
  1485  0E33  083C               	movf	?___flmul+2,w
  1486  0E34  00D6               	movwf	___fladd@b+2
  1487  0E35  083B               	movf	?___flmul+1,w
  1488  0E36  00D5               	movwf	___fladd@b+1
  1489  0E37  083A               	movf	?___flmul,w
  1490  0E38  00D4               	movwf	___fladd@b
  1491  0E39  120A  118A  2381  120A  158A  	fcall	___fladd
  1492  0E3E  1283               	bcf	3,5	;RP0=0, select bank0
  1493  0E3F  1303               	bcf	3,6	;RP1=0, select bank0
  1494  0E40  0857               	movf	?___fladd+3,w
  1495  0E41  00EB               	movwf	___fltol@f1+3
  1496  0E42  0856               	movf	?___fladd+2,w
  1497  0E43  00EA               	movwf	___fltol@f1+2
  1498  0E44  0855               	movf	?___fladd+1,w
  1499  0E45  00E9               	movwf	___fltol@f1+1
  1500  0E46  0854               	movf	?___fladd,w
  1501  0E47  00E8               	movwf	___fltol@f1
  1502  0E48  120A  158A  250C  120A  158A  	fcall	___fltol
  1503  0E4D  1283               	bcf	3,5	;RP0=0, select bank0
  1504  0E4E  1303               	bcf	3,6	;RP1=0, select bank0
  1505  0E4F  0869               	movf	?___fltol+1,w
  1506  0E50  1683               	bsf	3,5	;RP0=1, select bank1
  1507  0E51  1303               	bcf	3,6	;RP1=0, select bank1
  1508  0E52  00A6               	movwf	(?_map+1)^(0+128)
  1509  0E53  1283               	bcf	3,5	;RP0=0, select bank0
  1510  0E54  1303               	bcf	3,6	;RP1=0, select bank0
  1511  0E55  0868               	movf	?___fltol,w
  1512  0E56  1683               	bsf	3,5	;RP0=1, select bank1
  1513  0E57  1303               	bcf	3,6	;RP1=0, select bank1
  1514  0E58  00A5               	movwf	?_map^(0+128)
  1515  0E59                     i1l101:
  1516  0E59  0008               	return
  1517  0E5A                     __end_of_map:
  1518                           
  1519                           	psect	text4
  1520  0E5A                     __ptext4:	
  1521 ;; *************** function ___xxtofl *****************
  1522 ;; Defined at:
  1523 ;;		line 10 in file "C:\Program Files\Microchip\xc8\v2.35\pic\sources\c90\common\xxtofl.c"
  1524 ;; Parameters:    Size  Location     Type
  1525 ;;  sign            1    wreg     unsigned char 
  1526 ;;  val             4    0[COMMON] long 
  1527 ;; Auto vars:     Size  Location     Type
  1528 ;;  sign            1    8[COMMON] unsigned char 
  1529 ;;  arg             4   10[COMMON] unsigned long 
  1530 ;;  exp             1    9[COMMON] unsigned char 
  1531 ;; Return value:  Size  Location     Type
  1532 ;;                  4    0[COMMON] unsigned char 
  1533 ;; Registers used:
  1534 ;;		wreg, status,2, status,0
  1535 ;; Tracked objects:
  1536 ;;		On entry : 0/0
  1537 ;;		On exit  : 0/0
  1538 ;;		Unchanged: 0/0
  1539 ;; Data sizes:     COMMON   BANK0   BANK1   BANK3   BANK2
  1540 ;;      Params:         4       0       0       0       0
  1541 ;;      Locals:         6       0       0       0       0
  1542 ;;      Temps:          4       0       0       0       0
  1543 ;;      Totals:        14       0       0       0       0
  1544 ;;Total ram usage:       14 bytes
  1545 ;; Hardware stack levels used: 1
  1546 ;; This function calls:
  1547 ;;		Nothing
  1548 ;; This function is called by:
  1549 ;;		_map
  1550 ;; This function uses a non-reentrant model
  1551 ;;
  1552                           
  1553  0E5A                     ___xxtofl:	
  1554                           ;psect for function ___xxtofl
  1555                           
  1556                           
  1557                           ;incstack = 0
  1558                           ; Regs used in ___xxtofl: [wreg+status,2+status,0]
  1559                           ;___xxtofl@sign stored from wreg
  1560  0E5A  00F8               	movwf	___xxtofl@sign
  1561  0E5B                     i1l1917:
  1562  0E5B  0878               	movf	___xxtofl@sign,w
  1563  0E5C  1903               	btfsc	3,2
  1564  0E5D  2E5F               	goto	u276_21
  1565  0E5E  2E60               	goto	u276_20
  1566  0E5F                     u276_21:
  1567  0E5F  2E74               	goto	i1l1923
  1568  0E60                     u276_20:
  1569  0E60                     i1l1919:
  1570  0E60  1FF3               	btfss	___xxtofl@val+3,7
  1571  0E61  2E63               	goto	u277_21
  1572  0E62  2E64               	goto	u277_20
  1573  0E63                     u277_21:
  1574  0E63  2E74               	goto	i1l1923
  1575  0E64                     u277_20:
  1576  0E64                     i1l1921:
  1577  0E64  0970               	comf	___xxtofl@val,w
  1578  0E65  00FA               	movwf	___xxtofl@arg
  1579  0E66  0971               	comf	___xxtofl@val+1,w
  1580  0E67  00FB               	movwf	___xxtofl@arg+1
  1581  0E68  0972               	comf	___xxtofl@val+2,w
  1582  0E69  00FC               	movwf	___xxtofl@arg+2
  1583  0E6A  0973               	comf	___xxtofl@val+3,w
  1584  0E6B  00FD               	movwf	___xxtofl@arg+3
  1585  0E6C  0AFA               	incf	___xxtofl@arg,f
  1586  0E6D  1903               	skipnz
  1587  0E6E  0AFB               	incf	___xxtofl@arg+1,f
  1588  0E6F  1903               	skipnz
  1589  0E70  0AFC               	incf	___xxtofl@arg+2,f
  1590  0E71  1903               	skipnz
  1591  0E72  0AFD               	incf	___xxtofl@arg+3,f
  1592  0E73  2E7C               	goto	i1l620
  1593  0E74                     i1l1923:
  1594  0E74  0873               	movf	___xxtofl@val+3,w
  1595  0E75  00FD               	movwf	___xxtofl@arg+3
  1596  0E76  0872               	movf	___xxtofl@val+2,w
  1597  0E77  00FC               	movwf	___xxtofl@arg+2
  1598  0E78  0871               	movf	___xxtofl@val+1,w
  1599  0E79  00FB               	movwf	___xxtofl@arg+1
  1600  0E7A  0870               	movf	___xxtofl@val,w
  1601  0E7B  00FA               	movwf	___xxtofl@arg
  1602  0E7C                     i1l620:
  1603  0E7C  0873               	movf	___xxtofl@val+3,w
  1604  0E7D  0472               	iorwf	___xxtofl@val+2,w
  1605  0E7E  0471               	iorwf	___xxtofl@val+1,w
  1606  0E7F  0470               	iorwf	___xxtofl@val,w
  1607  0E80  1D03               	skipz
  1608  0E81  2E83               	goto	u278_21
  1609  0E82  2E84               	goto	u278_20
  1610  0E83                     u278_21:
  1611  0E83  2E8D               	goto	i1l1929
  1612  0E84                     u278_20:
  1613  0E84                     i1l1925:
  1614  0E84  3000               	movlw	0
  1615  0E85  00F3               	movwf	?___xxtofl+3
  1616  0E86  3000               	movlw	0
  1617  0E87  00F2               	movwf	?___xxtofl+2
  1618  0E88  3000               	movlw	0
  1619  0E89  00F1               	movwf	?___xxtofl+1
  1620  0E8A  3000               	movlw	0
  1621  0E8B  00F0               	movwf	?___xxtofl
  1622  0E8C  2F13               	goto	i1l622
  1623  0E8D                     i1l1929:
  1624  0E8D  3096               	movlw	150
  1625  0E8E  00F4               	movwf	??___xxtofl
  1626  0E8F  0874               	movf	??___xxtofl,w
  1627  0E90  00F9               	movwf	___xxtofl@exp
  1628  0E91  2E9F               	goto	i1l1933
  1629  0E92                     i1l1931:
  1630  0E92  3001               	movlw	1
  1631  0E93  00F4               	movwf	??___xxtofl
  1632  0E94  0874               	movf	??___xxtofl,w
  1633  0E95  07F9               	addwf	___xxtofl@exp,f
  1634  0E96  3001               	movlw	1
  1635  0E97                     u279_25:
  1636  0E97  1003               	clrc
  1637  0E98  0CFD               	rrf	___xxtofl@arg+3,f
  1638  0E99  0CFC               	rrf	___xxtofl@arg+2,f
  1639  0E9A  0CFB               	rrf	___xxtofl@arg+1,f
  1640  0E9B  0CFA               	rrf	___xxtofl@arg,f
  1641  0E9C  3EFF               	addlw	-1
  1642  0E9D  1D03               	skipz
  1643  0E9E  2E97               	goto	u279_25
  1644  0E9F                     i1l1933:
  1645  0E9F  30FE               	movlw	254
  1646  0EA0  057D               	andwf	___xxtofl@arg+3,w
  1647  0EA1  1D03               	btfss	3,2
  1648  0EA2  2EA4               	goto	u280_21
  1649  0EA3  2EA5               	goto	u280_20
  1650  0EA4                     u280_21:
  1651  0EA4  2E92               	goto	i1l1931
  1652  0EA5                     u280_20:
  1653  0EA5  2EC1               	goto	i1l626
  1654  0EA6                     i1l1935:
  1655  0EA6  3001               	movlw	1
  1656  0EA7  00F4               	movwf	??___xxtofl
  1657  0EA8  0874               	movf	??___xxtofl,w
  1658  0EA9  07F9               	addwf	___xxtofl@exp,f
  1659  0EAA                     i1l1937:
  1660  0EAA  3001               	movlw	1
  1661  0EAB  07FA               	addwf	___xxtofl@arg,f
  1662  0EAC  3000               	movlw	0
  1663  0EAD  1803               	skipnc
  1664  0EAE  3001               	movlw	1
  1665  0EAF  07FB               	addwf	___xxtofl@arg+1,f
  1666  0EB0  3000               	movlw	0
  1667  0EB1  1803               	skipnc
  1668  0EB2  3001               	movlw	1
  1669  0EB3  07FC               	addwf	___xxtofl@arg+2,f
  1670  0EB4  3000               	movlw	0
  1671  0EB5  1803               	skipnc
  1672  0EB6  3001               	movlw	1
  1673  0EB7  07FD               	addwf	___xxtofl@arg+3,f
  1674  0EB8                     i1l1939:
  1675  0EB8  3001               	movlw	1
  1676  0EB9                     u281_25:
  1677  0EB9  1003               	clrc
  1678  0EBA  0CFD               	rrf	___xxtofl@arg+3,f
  1679  0EBB  0CFC               	rrf	___xxtofl@arg+2,f
  1680  0EBC  0CFB               	rrf	___xxtofl@arg+1,f
  1681  0EBD  0CFA               	rrf	___xxtofl@arg,f
  1682  0EBE  3EFF               	addlw	-1
  1683  0EBF  1D03               	skipz
  1684  0EC0  2EB9               	goto	u281_25
  1685  0EC1                     i1l626:
  1686  0EC1  30FF               	movlw	255
  1687  0EC2  057D               	andwf	___xxtofl@arg+3,w
  1688  0EC3  1D03               	btfss	3,2
  1689  0EC4  2EC6               	goto	u282_21
  1690  0EC5  2EC7               	goto	u282_20
  1691  0EC6                     u282_21:
  1692  0EC6  2EA6               	goto	i1l1935
  1693  0EC7                     u282_20:
  1694  0EC7  2ED3               	goto	i1l1943
  1695  0EC8                     i1l1941:
  1696  0EC8  3001               	movlw	1
  1697  0EC9  02F9               	subwf	___xxtofl@exp,f
  1698  0ECA  3001               	movlw	1
  1699  0ECB  00F4               	movwf	??___xxtofl
  1700  0ECC                     u283_25:
  1701  0ECC  1003               	clrc
  1702  0ECD  0DFA               	rlf	___xxtofl@arg,f
  1703  0ECE  0DFB               	rlf	___xxtofl@arg+1,f
  1704  0ECF  0DFC               	rlf	___xxtofl@arg+2,f
  1705  0ED0  0DFD               	rlf	___xxtofl@arg+3,f
  1706  0ED1  0BF4               	decfsz	??___xxtofl,f
  1707  0ED2  2ECC               	goto	u283_25
  1708  0ED3                     i1l1943:
  1709  0ED3  1BFC               	btfsc	___xxtofl@arg+2,7
  1710  0ED4  2ED6               	goto	u284_21
  1711  0ED5  2ED7               	goto	u284_20
  1712  0ED6                     u284_21:
  1713  0ED6  2EDD               	goto	i1l633
  1714  0ED7                     u284_20:
  1715  0ED7                     i1l1945:
  1716  0ED7  3002               	movlw	2
  1717  0ED8  0279               	subwf	___xxtofl@exp,w
  1718  0ED9  1803               	skipnc
  1719  0EDA  2EDC               	goto	u285_21
  1720  0EDB  2EDD               	goto	u285_20
  1721  0EDC                     u285_21:
  1722  0EDC  2EC8               	goto	i1l1941
  1723  0EDD                     u285_20:
  1724  0EDD                     i1l633:
  1725  0EDD  1879               	btfsc	___xxtofl@exp,0
  1726  0EDE  2EE0               	goto	u286_21
  1727  0EDF  2EE1               	goto	u286_20
  1728  0EE0                     u286_21:
  1729  0EE0  2EE9               	goto	i1l634
  1730  0EE1                     u286_20:
  1731  0EE1                     i1l1947:
  1732  0EE1  30FF               	movlw	255
  1733  0EE2  05FA               	andwf	___xxtofl@arg,f
  1734  0EE3  30FF               	movlw	255
  1735  0EE4  05FB               	andwf	___xxtofl@arg+1,f
  1736  0EE5  307F               	movlw	127
  1737  0EE6  05FC               	andwf	___xxtofl@arg+2,f
  1738  0EE7  30FF               	movlw	255
  1739  0EE8  05FD               	andwf	___xxtofl@arg+3,f
  1740  0EE9                     i1l634:
  1741  0EE9  1003               	clrc
  1742  0EEA  0CF9               	rrf	___xxtofl@exp,f
  1743  0EEB                     i1l1949:
  1744  0EEB  0879               	movf	___xxtofl@exp,w
  1745  0EEC  00F4               	movwf	??___xxtofl
  1746  0EED  01F5               	clrf	??___xxtofl+1
  1747  0EEE  01F6               	clrf	??___xxtofl+2
  1748  0EEF  01F7               	clrf	??___xxtofl+3
  1749  0EF0  3018               	movlw	24
  1750  0EF1                     u287_25:
  1751  0EF1  1003               	clrc
  1752  0EF2  0DF4               	rlf	??___xxtofl,f
  1753  0EF3  0DF5               	rlf	??___xxtofl+1,f
  1754  0EF4  0DF6               	rlf	??___xxtofl+2,f
  1755  0EF5  0DF7               	rlf	??___xxtofl+3,f
  1756  0EF6                     u287_20:
  1757  0EF6  3EFF               	addlw	-1
  1758  0EF7  1D03               	skipz
  1759  0EF8  2EF1               	goto	u287_25
  1760  0EF9  0874               	movf	??___xxtofl,w
  1761  0EFA  04FA               	iorwf	___xxtofl@arg,f
  1762  0EFB  0875               	movf	??___xxtofl+1,w
  1763  0EFC  04FB               	iorwf	___xxtofl@arg+1,f
  1764  0EFD  0876               	movf	??___xxtofl+2,w
  1765  0EFE  04FC               	iorwf	___xxtofl@arg+2,f
  1766  0EFF  0877               	movf	??___xxtofl+3,w
  1767  0F00  04FD               	iorwf	___xxtofl@arg+3,f
  1768  0F01                     i1l1951:
  1769  0F01  0878               	movf	___xxtofl@sign,w
  1770  0F02  1903               	btfsc	3,2
  1771  0F03  2F05               	goto	u288_21
  1772  0F04  2F06               	goto	u288_20
  1773  0F05                     u288_21:
  1774  0F05  2F0B               	goto	i1l1957
  1775  0F06                     u288_20:
  1776  0F06                     i1l1953:
  1777  0F06  1FF3               	btfss	___xxtofl@val+3,7
  1778  0F07  2F09               	goto	u289_21
  1779  0F08  2F0A               	goto	u289_20
  1780  0F09                     u289_21:
  1781  0F09  2F0B               	goto	i1l1957
  1782  0F0A                     u289_20:
  1783  0F0A                     i1l1955:
  1784  0F0A  17FD               	bsf	___xxtofl@arg+3,7
  1785  0F0B                     i1l1957:
  1786  0F0B  087D               	movf	___xxtofl@arg+3,w
  1787  0F0C  00F3               	movwf	?___xxtofl+3
  1788  0F0D  087C               	movf	___xxtofl@arg+2,w
  1789  0F0E  00F2               	movwf	?___xxtofl+2
  1790  0F0F  087B               	movf	___xxtofl@arg+1,w
  1791  0F10  00F1               	movwf	?___xxtofl+1
  1792  0F11  087A               	movf	___xxtofl@arg,w
  1793  0F12  00F0               	movwf	?___xxtofl
  1794  0F13                     i1l622:
  1795  0F13  0008               	return
  1796  0F14                     __end_of___xxtofl:
  1797                           
  1798                           	psect	text5
  1799  0D0C                     __ptext5:	
  1800 ;; *************** function ___fltol *****************
  1801 ;; Defined at:
  1802 ;;		line 43 in file "C:\Program Files\Microchip\xc8\v2.35\pic\sources\c90\common\fltol.c"
  1803 ;; Parameters:    Size  Location     Type
  1804 ;;  f1              4   72[BANK0 ] unsigned char 
  1805 ;; Auto vars:     Size  Location     Type
  1806 ;;  exp1            1   77[BANK0 ] unsigned char 
  1807 ;;  sign1           1   76[BANK0 ] unsigned char 
  1808 ;; Return value:  Size  Location     Type
  1809 ;;                  4   72[BANK0 ] long 
  1810 ;; Registers used:
  1811 ;;		wreg, status,2, status,0
  1812 ;; Tracked objects:
  1813 ;;		On entry : 0/0
  1814 ;;		On exit  : 0/0
  1815 ;;		Unchanged: 0/0
  1816 ;; Data sizes:     COMMON   BANK0   BANK1   BANK3   BANK2
  1817 ;;      Params:         0       4       0       0       0
  1818 ;;      Locals:         0       2       0       0       0
  1819 ;;      Temps:          0       0       5       0       0
  1820 ;;      Totals:         0       6       5       0       0
  1821 ;;Total ram usage:       11 bytes
  1822 ;; Hardware stack levels used: 1
  1823 ;; This function calls:
  1824 ;;		Nothing
  1825 ;; This function is called by:
  1826 ;;		_map
  1827 ;; This function uses a non-reentrant model
  1828 ;;
  1829                           
  1830  0D0C                     ___fltol:	
  1831                           ;psect for function ___fltol
  1832                           
  1833  0D0C                     i1l1405:	
  1834                           ;incstack = 0
  1835                           ; Regs used in ___fltol: [wreg+status,2+status,0]
  1836                           
  1837  0D0C  1003               	clrc
  1838  0D0D  1283               	bcf	3,5	;RP0=0, select bank0
  1839  0D0E  1303               	bcf	3,6	;RP1=0, select bank0
  1840  0D0F  0D6A               	rlf	___fltol@f1+2,w
  1841  0D10  0D6B               	rlf	___fltol@f1+3,w
  1842  0D11  1683               	bsf	3,5	;RP0=1, select bank1
  1843  0D12  1303               	bcf	3,6	;RP1=0, select bank1
  1844  0D13  00A0               	movwf	??___fltol^(0+128)
  1845  0D14  0820               	movf	??___fltol^(0+128),w
  1846  0D15  1283               	bcf	3,5	;RP0=0, select bank0
  1847  0D16  1303               	bcf	3,6	;RP1=0, select bank0
  1848  0D17  00ED               	movwf	___fltol@exp1
  1849  0D18  086D               	movf	___fltol@exp1,w
  1850  0D19  1D03               	btfss	3,2
  1851  0D1A  2D1C               	goto	u154_21
  1852  0D1B  2D1D               	goto	u154_20
  1853  0D1C                     u154_21:
  1854  0D1C  2D26               	goto	i1l1411
  1855  0D1D                     u154_20:
  1856  0D1D                     i1l1407:
  1857  0D1D  3000               	movlw	0
  1858  0D1E  00EB               	movwf	?___fltol+3
  1859  0D1F  3000               	movlw	0
  1860  0D20  00EA               	movwf	?___fltol+2
  1861  0D21  3000               	movlw	0
  1862  0D22  00E9               	movwf	?___fltol+1
  1863  0D23  3000               	movlw	0
  1864  0D24  00E8               	movwf	?___fltol
  1865  0D25  2DA7               	goto	i1l373
  1866  0D26                     i1l1411:
  1867  0D26  0868               	movf	___fltol@f1,w
  1868  0D27  1683               	bsf	3,5	;RP0=1, select bank1
  1869  0D28  1303               	bcf	3,6	;RP1=0, select bank1
  1870  0D29  00A0               	movwf	??___fltol^(0+128)
  1871  0D2A  1283               	bcf	3,5	;RP0=0, select bank0
  1872  0D2B  1303               	bcf	3,6	;RP1=0, select bank0
  1873  0D2C  0869               	movf	___fltol@f1+1,w
  1874  0D2D  1683               	bsf	3,5	;RP0=1, select bank1
  1875  0D2E  1303               	bcf	3,6	;RP1=0, select bank1
  1876  0D2F  00A1               	movwf	(??___fltol^(0+128)+1)
  1877  0D30  1283               	bcf	3,5	;RP0=0, select bank0
  1878  0D31  1303               	bcf	3,6	;RP1=0, select bank0
  1879  0D32  086A               	movf	___fltol@f1+2,w
  1880  0D33  1683               	bsf	3,5	;RP0=1, select bank1
  1881  0D34  1303               	bcf	3,6	;RP1=0, select bank1
  1882  0D35  00A2               	movwf	(??___fltol^(0+128)+2)
  1883  0D36  1283               	bcf	3,5	;RP0=0, select bank0
  1884  0D37  1303               	bcf	3,6	;RP1=0, select bank0
  1885  0D38  086B               	movf	___fltol@f1+3,w
  1886  0D39  1683               	bsf	3,5	;RP0=1, select bank1
  1887  0D3A  1303               	bcf	3,6	;RP1=0, select bank1
  1888  0D3B  00A3               	movwf	(??___fltol^(0+128)+3)
  1889  0D3C  301F               	movlw	31
  1890  0D3D                     u155_25:
  1891  0D3D  1003               	clrc
  1892  0D3E  0CA3               	rrf	(??___fltol^(0+128)+3),f
  1893  0D3F  0CA2               	rrf	(??___fltol^(0+128)+2),f
  1894  0D40  0CA1               	rrf	(??___fltol^(0+128)+1),f
  1895  0D41  0CA0               	rrf	??___fltol^(0+128),f
  1896  0D42                     u155_20:
  1897  0D42  3EFF               	addlw	-1
  1898  0D43  1D03               	skipz
  1899  0D44  2D3D               	goto	u155_25
  1900  0D45  0820               	movf	??___fltol^(0+128),w
  1901  0D46  00A4               	movwf	(??___fltol+4)^(0+128)
  1902  0D47  0824               	movf	(??___fltol+4)^(0+128),w
  1903  0D48  1283               	bcf	3,5	;RP0=0, select bank0
  1904  0D49  1303               	bcf	3,6	;RP1=0, select bank0
  1905  0D4A  00EC               	movwf	___fltol@sign1
  1906  0D4B                     i1l1413:
  1907  0D4B  17EA               	bsf	___fltol@f1+2,7
  1908  0D4C                     i1l1415:
  1909  0D4C  30FF               	movlw	255
  1910  0D4D  05E8               	andwf	___fltol@f1,f
  1911  0D4E  30FF               	movlw	255
  1912  0D4F  05E9               	andwf	___fltol@f1+1,f
  1913  0D50  30FF               	movlw	255
  1914  0D51  05EA               	andwf	___fltol@f1+2,f
  1915  0D52  3000               	movlw	0
  1916  0D53  05EB               	andwf	___fltol@f1+3,f
  1917  0D54                     i1l1417:
  1918  0D54  3096               	movlw	150
  1919  0D55  02ED               	subwf	___fltol@exp1,f
  1920  0D56                     i1l1419:
  1921  0D56  1FED               	btfss	___fltol@exp1,7
  1922  0D57  2D59               	goto	u156_21
  1923  0D58  2D5A               	goto	u156_20
  1924  0D59                     u156_21:
  1925  0D59  2D78               	goto	i1l1429
  1926  0D5A                     u156_20:
  1927  0D5A                     i1l1421:
  1928  0D5A  086D               	movf	___fltol@exp1,w
  1929  0D5B  3A80               	xorlw	128
  1930  0D5C  3E97               	addlw	151
  1931  0D5D  1803               	skipnc
  1932  0D5E  2D60               	goto	u157_21
  1933  0D5F  2D61               	goto	u157_20
  1934  0D60                     u157_21:
  1935  0D60  2D62               	goto	i1l1427
  1936  0D61                     u157_20:
  1937  0D61  2D1D               	goto	i1l1407
  1938  0D62                     i1l1427:
  1939  0D62  3001               	movlw	1
  1940  0D63                     u158_25:
  1941  0D63  1003               	clrc
  1942  0D64  0CEB               	rrf	___fltol@f1+3,f
  1943  0D65  0CEA               	rrf	___fltol@f1+2,f
  1944  0D66  0CE9               	rrf	___fltol@f1+1,f
  1945  0D67  0CE8               	rrf	___fltol@f1,f
  1946  0D68  3EFF               	addlw	-1
  1947  0D69  1D03               	skipz
  1948  0D6A  2D63               	goto	u158_25
  1949  0D6B  3001               	movlw	1
  1950  0D6C  1683               	bsf	3,5	;RP0=1, select bank1
  1951  0D6D  1303               	bcf	3,6	;RP1=0, select bank1
  1952  0D6E  00A0               	movwf	??___fltol^(0+128)
  1953  0D6F  0820               	movf	??___fltol^(0+128),w
  1954  0D70  1283               	bcf	3,5	;RP0=0, select bank0
  1955  0D71  1303               	bcf	3,6	;RP1=0, select bank0
  1956  0D72  07ED               	addwf	___fltol@exp1,f
  1957  0D73  1D03               	btfss	3,2
  1958  0D74  2D76               	goto	u159_21
  1959  0D75  2D77               	goto	u159_20
  1960  0D76                     u159_21:
  1961  0D76  2D62               	goto	i1l1427
  1962  0D77                     u159_20:
  1963  0D77  2D97               	goto	i1l1437
  1964  0D78                     i1l1429:
  1965  0D78  3020               	movlw	32
  1966  0D79  026D               	subwf	___fltol@exp1,w
  1967  0D7A  1C03               	skipc
  1968  0D7B  2D7D               	goto	u160_21
  1969  0D7C  2D7E               	goto	u160_20
  1970  0D7D                     u160_21:
  1971  0D7D  2D92               	goto	i1l380
  1972  0D7E                     u160_20:
  1973  0D7E  2D1D               	goto	i1l1407
  1974  0D7F                     i1l1435:
  1975  0D7F  3001               	movlw	1
  1976  0D80  1683               	bsf	3,5	;RP0=1, select bank1
  1977  0D81  1303               	bcf	3,6	;RP1=0, select bank1
  1978  0D82  00A0               	movwf	??___fltol^(0+128)
  1979  0D83                     u161_25:
  1980  0D83  1003               	clrc
  1981  0D84  1283               	bcf	3,5	;RP0=0, select bank0
  1982  0D85  1303               	bcf	3,6	;RP1=0, select bank0
  1983  0D86  0DE8               	rlf	___fltol@f1,f
  1984  0D87  0DE9               	rlf	___fltol@f1+1,f
  1985  0D88  0DEA               	rlf	___fltol@f1+2,f
  1986  0D89  0DEB               	rlf	___fltol@f1+3,f
  1987  0D8A  1683               	bsf	3,5	;RP0=1, select bank1
  1988  0D8B  1303               	bcf	3,6	;RP1=0, select bank1
  1989  0D8C  0BA0               	decfsz	??___fltol^(0+128),f
  1990  0D8D  2D83               	goto	u161_25
  1991  0D8E  3001               	movlw	1
  1992  0D8F  1283               	bcf	3,5	;RP0=0, select bank0
  1993  0D90  1303               	bcf	3,6	;RP1=0, select bank0
  1994  0D91  02ED               	subwf	___fltol@exp1,f
  1995  0D92                     i1l380:
  1996  0D92  086D               	movf	___fltol@exp1,w
  1997  0D93  1D03               	btfss	3,2
  1998  0D94  2D96               	goto	u162_21
  1999  0D95  2D97               	goto	u162_20
  2000  0D96                     u162_21:
  2001  0D96  2D7F               	goto	i1l1435
  2002  0D97                     u162_20:
  2003  0D97                     i1l1437:
  2004  0D97  086C               	movf	___fltol@sign1,w
  2005  0D98  1903               	btfsc	3,2
  2006  0D99  2D9B               	goto	u163_21
  2007  0D9A  2D9C               	goto	u163_20
  2008  0D9B                     u163_21:
  2009  0D9B  2DA7               	goto	i1l383
  2010  0D9C                     u163_20:
  2011  0D9C                     i1l1439:
  2012  0D9C  09E8               	comf	___fltol@f1,f
  2013  0D9D  09E9               	comf	___fltol@f1+1,f
  2014  0D9E  09EA               	comf	___fltol@f1+2,f
  2015  0D9F  09EB               	comf	___fltol@f1+3,f
  2016  0DA0  0AE8               	incf	___fltol@f1,f
  2017  0DA1  1903               	skipnz
  2018  0DA2  0AE9               	incf	___fltol@f1+1,f
  2019  0DA3  1903               	skipnz
  2020  0DA4  0AEA               	incf	___fltol@f1+2,f
  2021  0DA5  1903               	skipnz
  2022  0DA6  0AEB               	incf	___fltol@f1+3,f
  2023  0DA7                     i1l383:
  2024  0DA7                     i1l373:
  2025  0DA7  0008               	return
  2026  0DA8                     __end_of___fltol:
  2027                           
  2028                           	psect	text6
  2029  0020                     __ptext6:	
  2030 ;; *************** function ___flmul *****************
  2031 ;; Defined at:
  2032 ;;		line 8 in file "C:\Program Files\Microchip\xc8\v2.35\pic\sources\c90\common\sprcmul.c"
  2033 ;; Parameters:    Size  Location     Type
  2034 ;;  b               4   26[BANK0 ] long 
  2035 ;;  a               4   30[BANK0 ] long 
  2036 ;; Auto vars:     Size  Location     Type
  2037 ;;  prod            4   46[BANK0 ] struct .
  2038 ;;  grs             4   40[BANK0 ] unsigned long 
  2039 ;;  temp            2   50[BANK0 ] struct .
  2040 ;;  bexp            1   45[BANK0 ] unsigned char 
  2041 ;;  aexp            1   44[BANK0 ] unsigned char 
  2042 ;;  sign            1   39[BANK0 ] unsigned char 
  2043 ;; Return value:  Size  Location     Type
  2044 ;;                  4   26[BANK0 ] unsigned char 
  2045 ;; Registers used:
  2046 ;;		wreg, status,2, status,0, btemp+1, pclath, cstack
  2047 ;; Tracked objects:
  2048 ;;		On entry : 0/0
  2049 ;;		On exit  : 0/0
  2050 ;;		Unchanged: 0/0
  2051 ;; Data sizes:     COMMON   BANK0   BANK1   BANK3   BANK2
  2052 ;;      Params:         0       8       0       0       0
  2053 ;;      Locals:         0      13       0       0       0
  2054 ;;      Temps:          0       5       0       0       0
  2055 ;;      Totals:         0      26       0       0       0
  2056 ;;Total ram usage:       26 bytes
  2057 ;; Hardware stack levels used: 1
  2058 ;; Hardware stack levels required when called: 1
  2059 ;; This function calls:
  2060 ;;		__Umul8_16
  2061 ;; This function is called by:
  2062 ;;		_map
  2063 ;; This function uses a non-reentrant model
  2064 ;;
  2065                           
  2066  0020                     ___flmul:	
  2067                           ;psect for function ___flmul
  2068                           
  2069  0020                     i1l1777:	
  2070                           ;incstack = 0
  2071                           ; Regs used in ___flmul: [wreg+status,2+status,0+btemp+1+pclath+cstack]
  2072                           
  2073  0020  1283               	bcf	3,5	;RP0=0, select bank0
  2074  0021  1303               	bcf	3,6	;RP1=0, select bank0
  2075  0022  083D               	movf	___flmul@b+3,w
  2076  0023  3980               	andlw	128
  2077  0024  00C2               	movwf	??___flmul
  2078  0025  0842               	movf	??___flmul,w
  2079  0026  00C7               	movwf	___flmul@sign
  2080  0027                     i1l1779:
  2081  0027  083D               	movf	___flmul@b+3,w
  2082  0028  00C2               	movwf	??___flmul
  2083  0029  0742               	addwf	??___flmul,w
  2084  002A  00C3               	movwf	??___flmul+1
  2085  002B  0843               	movf	??___flmul+1,w
  2086  002C  00CD               	movwf	___flmul@bexp
  2087  002D                     i1l1781:
  2088  002D  1FBC               	btfss	___flmul@b+2,7
  2089  002E  2830               	goto	u239_21
  2090  002F  2831               	goto	u239_20
  2091  0030                     u239_21:
  2092  0030  2832               	goto	i1l1785
  2093  0031                     u239_20:
  2094  0031                     i1l1783:
  2095  0031  144D               	bsf	___flmul@bexp,0
  2096  0032                     i1l1785:
  2097  0032  084D               	movf	___flmul@bexp,w
  2098  0033  1903               	btfsc	3,2
  2099  0034  2836               	goto	u240_21
  2100  0035  2837               	goto	u240_20
  2101  0036                     u240_21:
  2102  0036  2846               	goto	i1l1793
  2103  0037                     u240_20:
  2104  0037                     i1l1787:
  2105  0037  0A4D               	incf	___flmul@bexp,w
  2106  0038  1D03               	btfss	3,2
  2107  0039  283B               	goto	u241_21
  2108  003A  283C               	goto	u241_20
  2109  003B                     u241_21:
  2110  003B  2844               	goto	i1l1791
  2111  003C                     u241_20:
  2112  003C                     i1l1789:
  2113  003C  3000               	movlw	0
  2114  003D  00BD               	movwf	___flmul@b+3
  2115  003E  3000               	movlw	0
  2116  003F  00BC               	movwf	___flmul@b+2
  2117  0040  3000               	movlw	0
  2118  0041  00BB               	movwf	___flmul@b+1
  2119  0042  3000               	movlw	0
  2120  0043  00BA               	movwf	___flmul@b
  2121  0044                     i1l1791:
  2122  0044  17BC               	bsf	___flmul@b+2,7
  2123  0045  284E               	goto	i1l1795
  2124  0046                     i1l1793:
  2125  0046  3000               	movlw	0
  2126  0047  00BD               	movwf	___flmul@b+3
  2127  0048  3000               	movlw	0
  2128  0049  00BC               	movwf	___flmul@b+2
  2129  004A  3000               	movlw	0
  2130  004B  00BB               	movwf	___flmul@b+1
  2131  004C  3000               	movlw	0
  2132  004D  00BA               	movwf	___flmul@b
  2133  004E                     i1l1795:
  2134  004E  0841               	movf	___flmul@a+3,w
  2135  004F  3980               	andlw	128
  2136  0050  00C2               	movwf	??___flmul
  2137  0051  0842               	movf	??___flmul,w
  2138  0052  06C7               	xorwf	___flmul@sign,f
  2139  0053                     i1l1797:
  2140  0053  0841               	movf	___flmul@a+3,w
  2141  0054  00C2               	movwf	??___flmul
  2142  0055  0742               	addwf	??___flmul,w
  2143  0056  00C3               	movwf	??___flmul+1
  2144  0057  0843               	movf	??___flmul+1,w
  2145  0058  00CC               	movwf	___flmul@aexp
  2146  0059                     i1l1799:
  2147  0059  1FC0               	btfss	___flmul@a+2,7
  2148  005A  285C               	goto	u242_21
  2149  005B  285D               	goto	u242_20
  2150  005C                     u242_21:
  2151  005C  285E               	goto	i1l1803
  2152  005D                     u242_20:
  2153  005D                     i1l1801:
  2154  005D  144C               	bsf	___flmul@aexp,0
  2155  005E                     i1l1803:
  2156  005E  084C               	movf	___flmul@aexp,w
  2157  005F  1903               	btfsc	3,2
  2158  0060  2862               	goto	u243_21
  2159  0061  2863               	goto	u243_20
  2160  0062                     u243_21:
  2161  0062  2872               	goto	i1l1811
  2162  0063                     u243_20:
  2163  0063                     i1l1805:
  2164  0063  0A4C               	incf	___flmul@aexp,w
  2165  0064  1D03               	btfss	3,2
  2166  0065  2867               	goto	u244_21
  2167  0066  2868               	goto	u244_20
  2168  0067                     u244_21:
  2169  0067  2870               	goto	i1l1809
  2170  0068                     u244_20:
  2171  0068                     i1l1807:
  2172  0068  3000               	movlw	0
  2173  0069  00C1               	movwf	___flmul@a+3
  2174  006A  3000               	movlw	0
  2175  006B  00C0               	movwf	___flmul@a+2
  2176  006C  3000               	movlw	0
  2177  006D  00BF               	movwf	___flmul@a+1
  2178  006E  3000               	movlw	0
  2179  006F  00BE               	movwf	___flmul@a
  2180  0070                     i1l1809:
  2181  0070  17C0               	bsf	___flmul@a+2,7
  2182  0071  287A               	goto	i1l1813
  2183  0072                     i1l1811:
  2184  0072  3000               	movlw	0
  2185  0073  00C1               	movwf	___flmul@a+3
  2186  0074  3000               	movlw	0
  2187  0075  00C0               	movwf	___flmul@a+2
  2188  0076  3000               	movlw	0
  2189  0077  00BF               	movwf	___flmul@a+1
  2190  0078  3000               	movlw	0
  2191  0079  00BE               	movwf	___flmul@a
  2192  007A                     i1l1813:
  2193  007A  084C               	movf	___flmul@aexp,w
  2194  007B  1903               	btfsc	3,2
  2195  007C  287E               	goto	u245_21
  2196  007D  287F               	goto	u245_20
  2197  007E                     u245_21:
  2198  007E  2884               	goto	i1l1817
  2199  007F                     u245_20:
  2200  007F                     i1l1815:
  2201  007F  084D               	movf	___flmul@bexp,w
  2202  0080  1D03               	btfss	3,2
  2203  0081  2883               	goto	u246_21
  2204  0082  2884               	goto	u246_20
  2205  0083                     u246_21:
  2206  0083  288D               	goto	i1l1821
  2207  0084                     u246_20:
  2208  0084                     i1l1817:
  2209  0084  3000               	movlw	0
  2210  0085  00BD               	movwf	?___flmul+3
  2211  0086  3000               	movlw	0
  2212  0087  00BC               	movwf	?___flmul+2
  2213  0088  3000               	movlw	0
  2214  0089  00BB               	movwf	?___flmul+1
  2215  008A  3000               	movlw	0
  2216  008B  00BA               	movwf	?___flmul
  2217  008C  2B80               	goto	i1l576
  2218  008D                     i1l1821:
  2219  008D  083A               	movf	___flmul@b,w
  2220  008E  00C2               	movwf	??___flmul
  2221  008F  0842               	movf	??___flmul,w
  2222  0090  00F0               	movwf	__Umul8_16@multiplicand
  2223  0091  0840               	movf	___flmul@a+2,w
  2224  0092  120A  158A  2419  120A  118A  	fcall	__Umul8_16
  2225  0097  0871               	movf	?__Umul8_16+1,w
  2226  0098  1283               	bcf	3,5	;RP0=0, select bank0
  2227  0099  1303               	bcf	3,6	;RP1=0, select bank0
  2228  009A  00D3               	movwf	___flmul@temp+1
  2229  009B  0870               	movf	?__Umul8_16,w
  2230  009C  00D2               	movwf	___flmul@temp
  2231  009D                     i1l1823:
  2232  009D  0852               	movf	___flmul@temp,w
  2233  009E  00C2               	movwf	??___flmul
  2234  009F  01C3               	clrf	??___flmul+1
  2235  00A0  01C4               	clrf	??___flmul+2
  2236  00A1  01C5               	clrf	??___flmul+3
  2237  00A2  0845               	movf	??___flmul+3,w
  2238  00A3  00CB               	movwf	___flmul@grs+3
  2239  00A4  0844               	movf	??___flmul+2,w
  2240  00A5  00CA               	movwf	___flmul@grs+2
  2241  00A6  0843               	movf	??___flmul+1,w
  2242  00A7  00C9               	movwf	___flmul@grs+1
  2243  00A8  0842               	movf	??___flmul,w
  2244  00A9  00C8               	movwf	___flmul@grs
  2245  00AA                     i1l1825:
  2246  00AA  0853               	movf	___flmul@temp+1,w
  2247  00AB  00C2               	movwf	??___flmul
  2248  00AC  01C3               	clrf	??___flmul+1
  2249  00AD  01C4               	clrf	??___flmul+2
  2250  00AE  01C5               	clrf	??___flmul+3
  2251  00AF  0845               	movf	??___flmul+3,w
  2252  00B0  00D1               	movwf	___flmul@prod+3
  2253  00B1  0844               	movf	??___flmul+2,w
  2254  00B2  00D0               	movwf	___flmul@prod+2
  2255  00B3  0843               	movf	??___flmul+1,w
  2256  00B4  00CF               	movwf	___flmul@prod+1
  2257  00B5  0842               	movf	??___flmul,w
  2258  00B6  00CE               	movwf	___flmul@prod
  2259  00B7  083B               	movf	___flmul@b+1,w
  2260  00B8  00C2               	movwf	??___flmul
  2261  00B9  0842               	movf	??___flmul,w
  2262  00BA  00F0               	movwf	__Umul8_16@multiplicand
  2263  00BB  083F               	movf	___flmul@a+1,w
  2264  00BC  120A  158A  2419  120A  118A  	fcall	__Umul8_16
  2265  00C1  0871               	movf	?__Umul8_16+1,w
  2266  00C2  1283               	bcf	3,5	;RP0=0, select bank0
  2267  00C3  1303               	bcf	3,6	;RP1=0, select bank0
  2268  00C4  00D3               	movwf	___flmul@temp+1
  2269  00C5  0870               	movf	?__Umul8_16,w
  2270  00C6  00D2               	movwf	___flmul@temp
  2271  00C7                     i1l1827:
  2272  00C7  0852               	movf	___flmul@temp,w
  2273  00C8  00C2               	movwf	??___flmul
  2274  00C9  01C3               	clrf	??___flmul+1
  2275  00CA  01C4               	clrf	??___flmul+2
  2276  00CB  01C5               	clrf	??___flmul+3
  2277  00CC  0842               	movf	??___flmul,w
  2278  00CD  07C8               	addwf	___flmul@grs,f
  2279  00CE  0843               	movf	??___flmul+1,w
  2280  00CF  1103               	clrz
  2281  00D0  1803               	skipnc
  2282  00D1  3E01               	addlw	1
  2283  00D2  1903               	skipnz
  2284  00D3  28D5               	goto	u247_21
  2285  00D4  07C9               	addwf	___flmul@grs+1,f
  2286  00D5                     u247_21:
  2287  00D5  0844               	movf	??___flmul+2,w
  2288  00D6  1103               	clrz
  2289  00D7  1803               	skipnc
  2290  00D8  3E01               	addlw	1
  2291  00D9  1903               	skipnz
  2292  00DA  28DC               	goto	u247_22
  2293  00DB  07CA               	addwf	___flmul@grs+2,f
  2294  00DC                     u247_22:
  2295  00DC  0845               	movf	??___flmul+3,w
  2296  00DD  1103               	clrz
  2297  00DE  1803               	skipnc
  2298  00DF  3E01               	addlw	1
  2299  00E0  1903               	skipnz
  2300  00E1  28E3               	goto	u247_23
  2301  00E2  07CB               	addwf	___flmul@grs+3,f
  2302  00E3                     u247_23:
  2303  00E3                     i1l1829:
  2304  00E3  0853               	movf	___flmul@temp+1,w
  2305  00E4  00C2               	movwf	??___flmul
  2306  00E5  01C3               	clrf	??___flmul+1
  2307  00E6  01C4               	clrf	??___flmul+2
  2308  00E7  01C5               	clrf	??___flmul+3
  2309  00E8  0842               	movf	??___flmul,w
  2310  00E9  07CE               	addwf	___flmul@prod,f
  2311  00EA  0843               	movf	??___flmul+1,w
  2312  00EB  1103               	clrz
  2313  00EC  1803               	skipnc
  2314  00ED  3E01               	addlw	1
  2315  00EE  1903               	skipnz
  2316  00EF  28F1               	goto	u248_21
  2317  00F0  07CF               	addwf	___flmul@prod+1,f
  2318  00F1                     u248_21:
  2319  00F1  0844               	movf	??___flmul+2,w
  2320  00F2  1103               	clrz
  2321  00F3  1803               	skipnc
  2322  00F4  3E01               	addlw	1
  2323  00F5  1903               	skipnz
  2324  00F6  28F8               	goto	u248_22
  2325  00F7  07D0               	addwf	___flmul@prod+2,f
  2326  00F8                     u248_22:
  2327  00F8  0845               	movf	??___flmul+3,w
  2328  00F9  1103               	clrz
  2329  00FA  1803               	skipnc
  2330  00FB  3E01               	addlw	1
  2331  00FC  1903               	skipnz
  2332  00FD  28FF               	goto	u248_23
  2333  00FE  07D1               	addwf	___flmul@prod+3,f
  2334  00FF                     u248_23:
  2335  00FF  083C               	movf	___flmul@b+2,w
  2336  0100  00C2               	movwf	??___flmul
  2337  0101  0842               	movf	??___flmul,w
  2338  0102  00F0               	movwf	__Umul8_16@multiplicand
  2339  0103  083E               	movf	___flmul@a,w
  2340  0104  120A  158A  2419  120A  118A  	fcall	__Umul8_16
  2341  0109  0871               	movf	?__Umul8_16+1,w
  2342  010A  1283               	bcf	3,5	;RP0=0, select bank0
  2343  010B  1303               	bcf	3,6	;RP1=0, select bank0
  2344  010C  00D3               	movwf	___flmul@temp+1
  2345  010D  0870               	movf	?__Umul8_16,w
  2346  010E  00D2               	movwf	___flmul@temp
  2347  010F                     i1l1831:
  2348  010F  0852               	movf	___flmul@temp,w
  2349  0110  00C2               	movwf	??___flmul
  2350  0111  01C3               	clrf	??___flmul+1
  2351  0112  01C4               	clrf	??___flmul+2
  2352  0113  01C5               	clrf	??___flmul+3
  2353  0114  0842               	movf	??___flmul,w
  2354  0115  07C8               	addwf	___flmul@grs,f
  2355  0116  0843               	movf	??___flmul+1,w
  2356  0117  1103               	clrz
  2357  0118  1803               	skipnc
  2358  0119  3E01               	addlw	1
  2359  011A  1903               	skipnz
  2360  011B  291D               	goto	u249_21
  2361  011C  07C9               	addwf	___flmul@grs+1,f
  2362  011D                     u249_21:
  2363  011D  0844               	movf	??___flmul+2,w
  2364  011E  1103               	clrz
  2365  011F  1803               	skipnc
  2366  0120  3E01               	addlw	1
  2367  0121  1903               	skipnz
  2368  0122  2924               	goto	u249_22
  2369  0123  07CA               	addwf	___flmul@grs+2,f
  2370  0124                     u249_22:
  2371  0124  0845               	movf	??___flmul+3,w
  2372  0125  1103               	clrz
  2373  0126  1803               	skipnc
  2374  0127  3E01               	addlw	1
  2375  0128  1903               	skipnz
  2376  0129  292B               	goto	u249_23
  2377  012A  07CB               	addwf	___flmul@grs+3,f
  2378  012B                     u249_23:
  2379  012B                     i1l1833:
  2380  012B  0853               	movf	___flmul@temp+1,w
  2381  012C  00C2               	movwf	??___flmul
  2382  012D  01C3               	clrf	??___flmul+1
  2383  012E  01C4               	clrf	??___flmul+2
  2384  012F  01C5               	clrf	??___flmul+3
  2385  0130  0842               	movf	??___flmul,w
  2386  0131  07CE               	addwf	___flmul@prod,f
  2387  0132  0843               	movf	??___flmul+1,w
  2388  0133  1103               	clrz
  2389  0134  1803               	skipnc
  2390  0135  3E01               	addlw	1
  2391  0136  1903               	skipnz
  2392  0137  2939               	goto	u250_21
  2393  0138  07CF               	addwf	___flmul@prod+1,f
  2394  0139                     u250_21:
  2395  0139  0844               	movf	??___flmul+2,w
  2396  013A  1103               	clrz
  2397  013B  1803               	skipnc
  2398  013C  3E01               	addlw	1
  2399  013D  1903               	skipnz
  2400  013E  2940               	goto	u250_22
  2401  013F  07D0               	addwf	___flmul@prod+2,f
  2402  0140                     u250_22:
  2403  0140  0845               	movf	??___flmul+3,w
  2404  0141  1103               	clrz
  2405  0142  1803               	skipnc
  2406  0143  3E01               	addlw	1
  2407  0144  1903               	skipnz
  2408  0145  2947               	goto	u250_23
  2409  0146  07D1               	addwf	___flmul@prod+3,f
  2410  0147                     u250_23:
  2411  0147                     i1l1835:
  2412  0147  3008               	movlw	8
  2413  0148  00C2               	movwf	??___flmul
  2414  0149                     u251_25:
  2415  0149  1003               	clrc
  2416  014A  0DC8               	rlf	___flmul@grs,f
  2417  014B  0DC9               	rlf	___flmul@grs+1,f
  2418  014C  0DCA               	rlf	___flmul@grs+2,f
  2419  014D  0DCB               	rlf	___flmul@grs+3,f
  2420  014E  0BC2               	decfsz	??___flmul,f
  2421  014F  2949               	goto	u251_25
  2422  0150                     i1l1837:
  2423  0150  083B               	movf	___flmul@b+1,w
  2424  0151  00C2               	movwf	??___flmul
  2425  0152  0842               	movf	??___flmul,w
  2426  0153  00F0               	movwf	__Umul8_16@multiplicand
  2427  0154  083E               	movf	___flmul@a,w
  2428  0155  120A  158A  2419  120A  118A  	fcall	__Umul8_16
  2429  015A  0871               	movf	?__Umul8_16+1,w
  2430  015B  1283               	bcf	3,5	;RP0=0, select bank0
  2431  015C  1303               	bcf	3,6	;RP1=0, select bank0
  2432  015D  00D3               	movwf	___flmul@temp+1
  2433  015E  0870               	movf	?__Umul8_16,w
  2434  015F  00D2               	movwf	___flmul@temp
  2435  0160                     i1l1839:
  2436  0160  0852               	movf	___flmul@temp,w
  2437  0161  00C2               	movwf	??___flmul
  2438  0162  0853               	movf	___flmul@temp+1,w
  2439  0163  00C3               	movwf	??___flmul+1
  2440  0164  01C4               	clrf	??___flmul+2
  2441  0165  01C5               	clrf	??___flmul+3
  2442  0166  0842               	movf	??___flmul,w
  2443  0167  07C8               	addwf	___flmul@grs,f
  2444  0168  0843               	movf	??___flmul+1,w
  2445  0169  1103               	clrz
  2446  016A  1803               	skipnc
  2447  016B  3E01               	addlw	1
  2448  016C  1903               	skipnz
  2449  016D  296F               	goto	u252_21
  2450  016E  07C9               	addwf	___flmul@grs+1,f
  2451  016F                     u252_21:
  2452  016F  0844               	movf	??___flmul+2,w
  2453  0170  1103               	clrz
  2454  0171  1803               	skipnc
  2455  0172  3E01               	addlw	1
  2456  0173  1903               	skipnz
  2457  0174  2976               	goto	u252_22
  2458  0175  07CA               	addwf	___flmul@grs+2,f
  2459  0176                     u252_22:
  2460  0176  0845               	movf	??___flmul+3,w
  2461  0177  1103               	clrz
  2462  0178  1803               	skipnc
  2463  0179  3E01               	addlw	1
  2464  017A  1903               	skipnz
  2465  017B  297D               	goto	u252_23
  2466  017C  07CB               	addwf	___flmul@grs+3,f
  2467  017D                     u252_23:
  2468  017D                     i1l1841:
  2469  017D  083A               	movf	___flmul@b,w
  2470  017E  00C2               	movwf	??___flmul
  2471  017F  0842               	movf	??___flmul,w
  2472  0180  00F0               	movwf	__Umul8_16@multiplicand
  2473  0181  083F               	movf	___flmul@a+1,w
  2474  0182  120A  158A  2419  120A  118A  	fcall	__Umul8_16
  2475  0187  0871               	movf	?__Umul8_16+1,w
  2476  0188  1283               	bcf	3,5	;RP0=0, select bank0
  2477  0189  1303               	bcf	3,6	;RP1=0, select bank0
  2478  018A  00D3               	movwf	___flmul@temp+1
  2479  018B  0870               	movf	?__Umul8_16,w
  2480  018C  00D2               	movwf	___flmul@temp
  2481  018D                     i1l1843:
  2482  018D  0852               	movf	___flmul@temp,w
  2483  018E  00C2               	movwf	??___flmul
  2484  018F  0853               	movf	___flmul@temp+1,w
  2485  0190  00C3               	movwf	??___flmul+1
  2486  0191  01C4               	clrf	??___flmul+2
  2487  0192  01C5               	clrf	??___flmul+3
  2488  0193  0842               	movf	??___flmul,w
  2489  0194  07C8               	addwf	___flmul@grs,f
  2490  0195  0843               	movf	??___flmul+1,w
  2491  0196  1103               	clrz
  2492  0197  1803               	skipnc
  2493  0198  3E01               	addlw	1
  2494  0199  1903               	skipnz
  2495  019A  299C               	goto	u253_21
  2496  019B  07C9               	addwf	___flmul@grs+1,f
  2497  019C                     u253_21:
  2498  019C  0844               	movf	??___flmul+2,w
  2499  019D  1103               	clrz
  2500  019E  1803               	skipnc
  2501  019F  3E01               	addlw	1
  2502  01A0  1903               	skipnz
  2503  01A1  29A3               	goto	u253_22
  2504  01A2  07CA               	addwf	___flmul@grs+2,f
  2505  01A3                     u253_22:
  2506  01A3  0845               	movf	??___flmul+3,w
  2507  01A4  1103               	clrz
  2508  01A5  1803               	skipnc
  2509  01A6  3E01               	addlw	1
  2510  01A7  1903               	skipnz
  2511  01A8  29AA               	goto	u253_23
  2512  01A9  07CB               	addwf	___flmul@grs+3,f
  2513  01AA                     u253_23:
  2514  01AA                     i1l1845:
  2515  01AA  3008               	movlw	8
  2516  01AB  00C2               	movwf	??___flmul
  2517  01AC                     u254_25:
  2518  01AC  1003               	clrc
  2519  01AD  0DC8               	rlf	___flmul@grs,f
  2520  01AE  0DC9               	rlf	___flmul@grs+1,f
  2521  01AF  0DCA               	rlf	___flmul@grs+2,f
  2522  01B0  0DCB               	rlf	___flmul@grs+3,f
  2523  01B1  0BC2               	decfsz	??___flmul,f
  2524  01B2  29AC               	goto	u254_25
  2525  01B3  083A               	movf	___flmul@b,w
  2526  01B4  00C2               	movwf	??___flmul
  2527  01B5  0842               	movf	??___flmul,w
  2528  01B6  00F0               	movwf	__Umul8_16@multiplicand
  2529  01B7  083E               	movf	___flmul@a,w
  2530  01B8  120A  158A  2419  120A  118A  	fcall	__Umul8_16
  2531  01BD  0871               	movf	?__Umul8_16+1,w
  2532  01BE  1283               	bcf	3,5	;RP0=0, select bank0
  2533  01BF  1303               	bcf	3,6	;RP1=0, select bank0
  2534  01C0  00D3               	movwf	___flmul@temp+1
  2535  01C1  0870               	movf	?__Umul8_16,w
  2536  01C2  00D2               	movwf	___flmul@temp
  2537  01C3                     i1l1847:
  2538  01C3  0852               	movf	___flmul@temp,w
  2539  01C4  00C2               	movwf	??___flmul
  2540  01C5  0853               	movf	___flmul@temp+1,w
  2541  01C6  00C3               	movwf	??___flmul+1
  2542  01C7  01C4               	clrf	??___flmul+2
  2543  01C8  01C5               	clrf	??___flmul+3
  2544  01C9  0842               	movf	??___flmul,w
  2545  01CA  07C8               	addwf	___flmul@grs,f
  2546  01CB  0843               	movf	??___flmul+1,w
  2547  01CC  1103               	clrz
  2548  01CD  1803               	skipnc
  2549  01CE  3E01               	addlw	1
  2550  01CF  1903               	skipnz
  2551  01D0  29D2               	goto	u255_21
  2552  01D1  07C9               	addwf	___flmul@grs+1,f
  2553  01D2                     u255_21:
  2554  01D2  0844               	movf	??___flmul+2,w
  2555  01D3  1103               	clrz
  2556  01D4  1803               	skipnc
  2557  01D5  3E01               	addlw	1
  2558  01D6  1903               	skipnz
  2559  01D7  29D9               	goto	u255_22
  2560  01D8  07CA               	addwf	___flmul@grs+2,f
  2561  01D9                     u255_22:
  2562  01D9  0845               	movf	??___flmul+3,w
  2563  01DA  1103               	clrz
  2564  01DB  1803               	skipnc
  2565  01DC  3E01               	addlw	1
  2566  01DD  1903               	skipnz
  2567  01DE  29E0               	goto	u255_23
  2568  01DF  07CB               	addwf	___flmul@grs+3,f
  2569  01E0                     u255_23:
  2570  01E0                     i1l1849:
  2571  01E0  083B               	movf	___flmul@b+1,w
  2572  01E1  00C2               	movwf	??___flmul
  2573  01E2  0842               	movf	??___flmul,w
  2574  01E3  00F0               	movwf	__Umul8_16@multiplicand
  2575  01E4  0840               	movf	___flmul@a+2,w
  2576  01E5  120A  158A  2419  120A  118A  	fcall	__Umul8_16
  2577  01EA  0871               	movf	?__Umul8_16+1,w
  2578  01EB  1283               	bcf	3,5	;RP0=0, select bank0
  2579  01EC  1303               	bcf	3,6	;RP1=0, select bank0
  2580  01ED  00D3               	movwf	___flmul@temp+1
  2581  01EE  0870               	movf	?__Umul8_16,w
  2582  01EF  00D2               	movwf	___flmul@temp
  2583  01F0  0852               	movf	___flmul@temp,w
  2584  01F1  00C2               	movwf	??___flmul
  2585  01F2  0853               	movf	___flmul@temp+1,w
  2586  01F3  00C3               	movwf	??___flmul+1
  2587  01F4  01C4               	clrf	??___flmul+2
  2588  01F5  01C5               	clrf	??___flmul+3
  2589  01F6  0842               	movf	??___flmul,w
  2590  01F7  07CE               	addwf	___flmul@prod,f
  2591  01F8  0843               	movf	??___flmul+1,w
  2592  01F9  1103               	clrz
  2593  01FA  1803               	skipnc
  2594  01FB  3E01               	addlw	1
  2595  01FC  1903               	skipnz
  2596  01FD  29FF               	goto	u256_21
  2597  01FE  07CF               	addwf	___flmul@prod+1,f
  2598  01FF                     u256_21:
  2599  01FF  0844               	movf	??___flmul+2,w
  2600  0200  1103               	clrz
  2601  0201  1803               	skipnc
  2602  0202  3E01               	addlw	1
  2603  0203  1903               	skipnz
  2604  0204  2A06               	goto	u256_22
  2605  0205  07D0               	addwf	___flmul@prod+2,f
  2606  0206                     u256_22:
  2607  0206  0845               	movf	??___flmul+3,w
  2608  0207  1103               	clrz
  2609  0208  1803               	skipnc
  2610  0209  3E01               	addlw	1
  2611  020A  1903               	skipnz
  2612  020B  2A0D               	goto	u256_23
  2613  020C  07D1               	addwf	___flmul@prod+3,f
  2614  020D                     u256_23:
  2615  020D                     i1l1851:
  2616  020D  083C               	movf	___flmul@b+2,w
  2617  020E  00C2               	movwf	??___flmul
  2618  020F  0842               	movf	??___flmul,w
  2619  0210  00F0               	movwf	__Umul8_16@multiplicand
  2620  0211  083F               	movf	___flmul@a+1,w
  2621  0212  120A  158A  2419  120A  118A  	fcall	__Umul8_16
  2622  0217  0871               	movf	?__Umul8_16+1,w
  2623  0218  1283               	bcf	3,5	;RP0=0, select bank0
  2624  0219  1303               	bcf	3,6	;RP1=0, select bank0
  2625  021A  00D3               	movwf	___flmul@temp+1
  2626  021B  0870               	movf	?__Umul8_16,w
  2627  021C  00D2               	movwf	___flmul@temp
  2628  021D                     i1l1853:
  2629  021D  0852               	movf	___flmul@temp,w
  2630  021E  00C2               	movwf	??___flmul
  2631  021F  0853               	movf	___flmul@temp+1,w
  2632  0220  00C3               	movwf	??___flmul+1
  2633  0221  01C4               	clrf	??___flmul+2
  2634  0222  01C5               	clrf	??___flmul+3
  2635  0223  0842               	movf	??___flmul,w
  2636  0224  07CE               	addwf	___flmul@prod,f
  2637  0225  0843               	movf	??___flmul+1,w
  2638  0226  1103               	clrz
  2639  0227  1803               	skipnc
  2640  0228  3E01               	addlw	1
  2641  0229  1903               	skipnz
  2642  022A  2A2C               	goto	u257_21
  2643  022B  07CF               	addwf	___flmul@prod+1,f
  2644  022C                     u257_21:
  2645  022C  0844               	movf	??___flmul+2,w
  2646  022D  1103               	clrz
  2647  022E  1803               	skipnc
  2648  022F  3E01               	addlw	1
  2649  0230  1903               	skipnz
  2650  0231  2A33               	goto	u257_22
  2651  0232  07D0               	addwf	___flmul@prod+2,f
  2652  0233                     u257_22:
  2653  0233  0845               	movf	??___flmul+3,w
  2654  0234  1103               	clrz
  2655  0235  1803               	skipnc
  2656  0236  3E01               	addlw	1
  2657  0237  1903               	skipnz
  2658  0238  2A3A               	goto	u257_23
  2659  0239  07D1               	addwf	___flmul@prod+3,f
  2660  023A                     u257_23:
  2661  023A  083C               	movf	___flmul@b+2,w
  2662  023B  00C2               	movwf	??___flmul
  2663  023C  0842               	movf	??___flmul,w
  2664  023D  00F0               	movwf	__Umul8_16@multiplicand
  2665  023E  0840               	movf	___flmul@a+2,w
  2666  023F  120A  158A  2419  120A  118A  	fcall	__Umul8_16
  2667  0244  0871               	movf	?__Umul8_16+1,w
  2668  0245  1283               	bcf	3,5	;RP0=0, select bank0
  2669  0246  1303               	bcf	3,6	;RP1=0, select bank0
  2670  0247  00D3               	movwf	___flmul@temp+1
  2671  0248  0870               	movf	?__Umul8_16,w
  2672  0249  00D2               	movwf	___flmul@temp
  2673  024A                     i1l1855:
  2674  024A  0852               	movf	___flmul@temp,w
  2675  024B  00C2               	movwf	??___flmul
  2676  024C  0853               	movf	___flmul@temp+1,w
  2677  024D  00C3               	movwf	??___flmul+1
  2678  024E  01C4               	clrf	??___flmul+2
  2679  024F  01C5               	clrf	??___flmul+3
  2680  0250  3008               	movlw	8
  2681  0251                     u258_25:
  2682  0251  1003               	clrc
  2683  0252  0DC2               	rlf	??___flmul,f
  2684  0253  0DC3               	rlf	??___flmul+1,f
  2685  0254  0DC4               	rlf	??___flmul+2,f
  2686  0255  0DC5               	rlf	??___flmul+3,f
  2687  0256                     u258_20:
  2688  0256  3EFF               	addlw	-1
  2689  0257  1D03               	skipz
  2690  0258  2A51               	goto	u258_25
  2691  0259  0842               	movf	??___flmul,w
  2692  025A  07CE               	addwf	___flmul@prod,f
  2693  025B  0843               	movf	??___flmul+1,w
  2694  025C  1103               	clrz
  2695  025D  1803               	skipnc
  2696  025E  3E01               	addlw	1
  2697  025F  1903               	skipnz
  2698  0260  2A62               	goto	u259_21
  2699  0261  07CF               	addwf	___flmul@prod+1,f
  2700  0262                     u259_21:
  2701  0262  0844               	movf	??___flmul+2,w
  2702  0263  1103               	clrz
  2703  0264  1803               	skipnc
  2704  0265  3E01               	addlw	1
  2705  0266  1903               	skipnz
  2706  0267  2A69               	goto	u259_22
  2707  0268  07D0               	addwf	___flmul@prod+2,f
  2708  0269                     u259_22:
  2709  0269  0845               	movf	??___flmul+3,w
  2710  026A  1103               	clrz
  2711  026B  1803               	skipnc
  2712  026C  3E01               	addlw	1
  2713  026D  1903               	skipnz
  2714  026E  2A70               	goto	u259_23
  2715  026F  07D1               	addwf	___flmul@prod+3,f
  2716  0270                     u259_23:
  2717  0270                     i1l1857:
  2718  0270  0848               	movf	___flmul@grs,w
  2719  0271  00C2               	movwf	??___flmul
  2720  0272  0849               	movf	___flmul@grs+1,w
  2721  0273  00C3               	movwf	??___flmul+1
  2722  0274  084A               	movf	___flmul@grs+2,w
  2723  0275  00C4               	movwf	??___flmul+2
  2724  0276  084B               	movf	___flmul@grs+3,w
  2725  0277  00C5               	movwf	??___flmul+3
  2726  0278  3018               	movlw	24
  2727  0279                     u260_25:
  2728  0279  1003               	clrc
  2729  027A  0CC5               	rrf	??___flmul+3,f
  2730  027B  0CC4               	rrf	??___flmul+2,f
  2731  027C  0CC3               	rrf	??___flmul+1,f
  2732  027D  0CC2               	rrf	??___flmul,f
  2733  027E                     u260_20:
  2734  027E  3EFF               	addlw	-1
  2735  027F  1D03               	skipz
  2736  0280  2A79               	goto	u260_25
  2737  0281  0842               	movf	??___flmul,w
  2738  0282  07CE               	addwf	___flmul@prod,f
  2739  0283  0843               	movf	??___flmul+1,w
  2740  0284  1103               	clrz
  2741  0285  1803               	skipnc
  2742  0286  3E01               	addlw	1
  2743  0287  1903               	skipnz
  2744  0288  2A8A               	goto	u261_21
  2745  0289  07CF               	addwf	___flmul@prod+1,f
  2746  028A                     u261_21:
  2747  028A  0844               	movf	??___flmul+2,w
  2748  028B  1103               	clrz
  2749  028C  1803               	skipnc
  2750  028D  3E01               	addlw	1
  2751  028E  1903               	skipnz
  2752  028F  2A91               	goto	u261_22
  2753  0290  07D0               	addwf	___flmul@prod+2,f
  2754  0291                     u261_22:
  2755  0291  0845               	movf	??___flmul+3,w
  2756  0292  1103               	clrz
  2757  0293  1803               	skipnc
  2758  0294  3E01               	addlw	1
  2759  0295  1903               	skipnz
  2760  0296  2A98               	goto	u261_23
  2761  0297  07D1               	addwf	___flmul@prod+3,f
  2762  0298                     u261_23:
  2763  0298                     i1l1859:
  2764  0298  3008               	movlw	8
  2765  0299  00C2               	movwf	??___flmul
  2766  029A                     u262_25:
  2767  029A  1003               	clrc
  2768  029B  0DC8               	rlf	___flmul@grs,f
  2769  029C  0DC9               	rlf	___flmul@grs+1,f
  2770  029D  0DCA               	rlf	___flmul@grs+2,f
  2771  029E  0DCB               	rlf	___flmul@grs+3,f
  2772  029F  0BC2               	decfsz	??___flmul,f
  2773  02A0  2A9A               	goto	u262_25
  2774  02A1                     i1l1861:
  2775  02A1  084D               	movf	___flmul@bexp,w
  2776  02A2  074C               	addwf	___flmul@aexp,w
  2777  02A3  00C2               	movwf	??___flmul
  2778  02A4  01C3               	clrf	??___flmul+1
  2779  02A5  0DC3               	rlf	??___flmul+1,f
  2780  02A6  0842               	movf	??___flmul,w
  2781  02A7  3E82               	addlw	130
  2782  02A8  00D2               	movwf	___flmul@temp
  2783  02A9  0843               	movf	??___flmul+1,w
  2784  02AA  1803               	skipnc
  2785  02AB  3E01               	addlw	1
  2786  02AC  3EFF               	addlw	255
  2787  02AD  00D3               	movwf	___flmul@temp+1
  2788  02AE  2ACC               	goto	i1l1873
  2789  02AF                     i1l1863:
  2790  02AF  3001               	movlw	1
  2791  02B0  00C2               	movwf	??___flmul
  2792  02B1                     u263_25:
  2793  02B1  1003               	clrc
  2794  02B2  0DCE               	rlf	___flmul@prod,f
  2795  02B3  0DCF               	rlf	___flmul@prod+1,f
  2796  02B4  0DD0               	rlf	___flmul@prod+2,f
  2797  02B5  0DD1               	rlf	___flmul@prod+3,f
  2798  02B6  0BC2               	decfsz	??___flmul,f
  2799  02B7  2AB1               	goto	u263_25
  2800  02B8                     i1l1865:
  2801  02B8  1FCB               	btfss	___flmul@grs+3,7
  2802  02B9  2ABB               	goto	u264_21
  2803  02BA  2ABC               	goto	u264_20
  2804  02BB                     u264_21:
  2805  02BB  2ABD               	goto	i1l1869
  2806  02BC                     u264_20:
  2807  02BC                     i1l1867:
  2808  02BC  144E               	bsf	___flmul@prod,0
  2809  02BD                     i1l1869:
  2810  02BD  3001               	movlw	1
  2811  02BE  00C2               	movwf	??___flmul
  2812  02BF                     u265_25:
  2813  02BF  1003               	clrc
  2814  02C0  0DC8               	rlf	___flmul@grs,f
  2815  02C1  0DC9               	rlf	___flmul@grs+1,f
  2816  02C2  0DCA               	rlf	___flmul@grs+2,f
  2817  02C3  0DCB               	rlf	___flmul@grs+3,f
  2818  02C4  0BC2               	decfsz	??___flmul,f
  2819  02C5  2ABF               	goto	u265_25
  2820  02C6                     i1l1871:
  2821  02C6  30FF               	movlw	255
  2822  02C7  07D2               	addwf	___flmul@temp,f
  2823  02C8  1803               	skipnc
  2824  02C9  0AD3               	incf	___flmul@temp+1,f
  2825  02CA  30FF               	movlw	255
  2826  02CB  07D3               	addwf	___flmul@temp+1,f
  2827  02CC                     i1l1873:
  2828  02CC  1FD0               	btfss	___flmul@prod+2,7
  2829  02CD  2ACF               	goto	u266_21
  2830  02CE  2AD0               	goto	u266_20
  2831  02CF                     u266_21:
  2832  02CF  2AAF               	goto	i1l1863
  2833  02D0                     u266_20:
  2834  02D0                     i1l1875:
  2835  02D0  01CC               	clrf	___flmul@aexp
  2836  02D1                     i1l1877:
  2837  02D1  1FCB               	btfss	___flmul@grs+3,7
  2838  02D2  2AD4               	goto	u267_21
  2839  02D3  2AD5               	goto	u267_20
  2840  02D4                     u267_21:
  2841  02D4  2AF1               	goto	i1l1885
  2842  02D5                     u267_20:
  2843  02D5                     i1l1879:
  2844  02D5  30FF               	movlw	255
  2845  02D6  0548               	andwf	___flmul@grs,w
  2846  02D7  00C2               	movwf	??___flmul
  2847  02D8  30FF               	movlw	255
  2848  02D9  0549               	andwf	___flmul@grs+1,w
  2849  02DA  00C3               	movwf	??___flmul+1
  2850  02DB  30FF               	movlw	255
  2851  02DC  054A               	andwf	___flmul@grs+2,w
  2852  02DD  00C4               	movwf	??___flmul+2
  2853  02DE  307F               	movlw	127
  2854  02DF  054B               	andwf	___flmul@grs+3,w
  2855  02E0  00C5               	movwf	??___flmul+3
  2856  02E1  0845               	movf	??___flmul+3,w
  2857  02E2  0444               	iorwf	??___flmul+2,w
  2858  02E3  0443               	iorwf	??___flmul+1,w
  2859  02E4  0442               	iorwf	??___flmul,w
  2860  02E5  1903               	skipnz
  2861  02E6  2AE8               	goto	u268_21
  2862  02E7  2AE9               	goto	u268_20
  2863  02E8                     u268_21:
  2864  02E8  2AEC               	goto	i1l582
  2865  02E9                     u268_20:
  2866  02E9                     i1l1881:
  2867  02E9  01CC               	clrf	___flmul@aexp
  2868  02EA  0ACC               	incf	___flmul@aexp,f
  2869  02EB  2AF1               	goto	i1l1885
  2870  02EC                     i1l582:
  2871  02EC  1C4E               	btfss	___flmul@prod,0
  2872  02ED  2AEF               	goto	u269_21
  2873  02EE  2AF0               	goto	u269_20
  2874  02EF                     u269_21:
  2875  02EF  2AF1               	goto	i1l1885
  2876  02F0                     u269_20:
  2877  02F0  2AE9               	goto	i1l1881
  2878  02F1                     i1l1885:
  2879  02F1  084C               	movf	___flmul@aexp,w
  2880  02F2  1903               	btfsc	3,2
  2881  02F3  2AF5               	goto	u270_21
  2882  02F4  2AF6               	goto	u270_20
  2883  02F5                     u270_21:
  2884  02F5  2B27               	goto	i1l1895
  2885  02F6                     u270_20:
  2886  02F6                     i1l1887:
  2887  02F6  3001               	movlw	1
  2888  02F7  07CE               	addwf	___flmul@prod,f
  2889  02F8  3000               	movlw	0
  2890  02F9  1803               	skipnc
  2891  02FA  3001               	movlw	1
  2892  02FB  07CF               	addwf	___flmul@prod+1,f
  2893  02FC  3000               	movlw	0
  2894  02FD  1803               	skipnc
  2895  02FE  3001               	movlw	1
  2896  02FF  07D0               	addwf	___flmul@prod+2,f
  2897  0300  3000               	movlw	0
  2898  0301  1803               	skipnc
  2899  0302  3001               	movlw	1
  2900  0303  07D1               	addwf	___flmul@prod+3,f
  2901  0304                     i1l1889:
  2902  0304  1C51               	btfss	___flmul@prod+3,0
  2903  0305  2B07               	goto	u271_21
  2904  0306  2B08               	goto	u271_20
  2905  0307                     u271_21:
  2906  0307  2B27               	goto	i1l1895
  2907  0308                     u271_20:
  2908  0308                     i1l1891:
  2909  0308  084E               	movf	___flmul@prod,w
  2910  0309  00C2               	movwf	??___flmul
  2911  030A  084F               	movf	___flmul@prod+1,w
  2912  030B  00C3               	movwf	??___flmul+1
  2913  030C  0850               	movf	___flmul@prod+2,w
  2914  030D  00C4               	movwf	??___flmul+2
  2915  030E  0851               	movf	___flmul@prod+3,w
  2916  030F  00C5               	movwf	??___flmul+3
  2917  0310  3001               	movlw	1
  2918  0311  00C6               	movwf	??___flmul+4
  2919  0312                     u272_25:
  2920  0312  0D45               	rlf	??___flmul+3,w
  2921  0313  0CC5               	rrf	??___flmul+3,f
  2922  0314  0CC4               	rrf	??___flmul+2,f
  2923  0315  0CC3               	rrf	??___flmul+1,f
  2924  0316  0CC2               	rrf	??___flmul,f
  2925  0317                     u272_20:
  2926  0317  0BC6               	decfsz	??___flmul+4,f
  2927  0318  2B12               	goto	u272_25
  2928  0319  0845               	movf	??___flmul+3,w
  2929  031A  00D1               	movwf	___flmul@prod+3
  2930  031B  0844               	movf	??___flmul+2,w
  2931  031C  00D0               	movwf	___flmul@prod+2
  2932  031D  0843               	movf	??___flmul+1,w
  2933  031E  00CF               	movwf	___flmul@prod+1
  2934  031F  0842               	movf	??___flmul,w
  2935  0320  00CE               	movwf	___flmul@prod
  2936  0321                     i1l1893:
  2937  0321  3001               	movlw	1
  2938  0322  07D2               	addwf	___flmul@temp,f
  2939  0323  1803               	skipnc
  2940  0324  0AD3               	incf	___flmul@temp+1,f
  2941  0325  3000               	movlw	0
  2942  0326  07D3               	addwf	___flmul@temp+1,f
  2943  0327                     i1l1895:
  2944  0327  0853               	movf	___flmul@temp+1,w
  2945  0328  3A80               	xorlw	128
  2946  0329  00FF               	movwf	btemp+1
  2947  032A  3080               	movlw	128
  2948  032B  027F               	subwf	btemp+1,w
  2949  032C  1D03               	skipz
  2950  032D  2B30               	goto	u273_25
  2951  032E  30FF               	movlw	255
  2952  032F  0252               	subwf	___flmul@temp,w
  2953  0330                     u273_25:
  2954  0330  1C03               	skipc
  2955  0331  2B33               	goto	u273_21
  2956  0332  2B34               	goto	u273_20
  2957  0333                     u273_21:
  2958  0333  2B3F               	goto	i1l1899
  2959  0334                     u273_20:
  2960  0334                     i1l1897:
  2961  0334  307F               	movlw	127
  2962  0335  1283               	bcf	3,5	;RP0=0, select bank0
  2963  0336  1303               	bcf	3,6	;RP1=0, select bank0
  2964  0337  00D1               	movwf	___flmul@prod+3
  2965  0338  3080               	movlw	128
  2966  0339  00D0               	movwf	___flmul@prod+2
  2967  033A  3000               	movlw	0
  2968  033B  00CF               	movwf	___flmul@prod+1
  2969  033C  3000               	movlw	0
  2970  033D  00CE               	movwf	___flmul@prod
  2971  033E  2B74               	goto	i1l588
  2972  033F                     i1l1899:
  2973  033F  1283               	bcf	3,5	;RP0=0, select bank0
  2974  0340  1303               	bcf	3,6	;RP1=0, select bank0
  2975  0341  0853               	movf	___flmul@temp+1,w
  2976  0342  3A80               	xorlw	128
  2977  0343  00FF               	movwf	btemp+1
  2978  0344  3080               	movlw	128
  2979  0345  027F               	subwf	btemp+1,w
  2980  0346  1D03               	skipz
  2981  0347  2B4A               	goto	u274_25
  2982  0348  3001               	movlw	1
  2983  0349  0252               	subwf	___flmul@temp,w
  2984  034A                     u274_25:
  2985  034A  1803               	skipnc
  2986  034B  2B4D               	goto	u274_21
  2987  034C  2B4E               	goto	u274_20
  2988  034D                     u274_21:
  2989  034D  2B5A               	goto	i1l1905
  2990  034E                     u274_20:
  2991  034E                     i1l1901:
  2992  034E  3000               	movlw	0
  2993  034F  1283               	bcf	3,5	;RP0=0, select bank0
  2994  0350  1303               	bcf	3,6	;RP1=0, select bank0
  2995  0351  00D1               	movwf	___flmul@prod+3
  2996  0352  3000               	movlw	0
  2997  0353  00D0               	movwf	___flmul@prod+2
  2998  0354  3000               	movlw	0
  2999  0355  00CF               	movwf	___flmul@prod+1
  3000  0356  3000               	movlw	0
  3001  0357  00CE               	movwf	___flmul@prod
  3002  0358                     i1l1903:
  3003  0358  01C7               	clrf	___flmul@sign
  3004  0359  2B74               	goto	i1l588
  3005  035A                     i1l1905:
  3006  035A  1283               	bcf	3,5	;RP0=0, select bank0
  3007  035B  1303               	bcf	3,6	;RP1=0, select bank0
  3008  035C  0852               	movf	___flmul@temp,w
  3009  035D  00C2               	movwf	??___flmul
  3010  035E  0842               	movf	??___flmul,w
  3011  035F  00CD               	movwf	___flmul@bexp
  3012  0360  30FF               	movlw	255
  3013  0361  05CE               	andwf	___flmul@prod,f
  3014  0362  30FF               	movlw	255
  3015  0363  05CF               	andwf	___flmul@prod+1,f
  3016  0364  307F               	movlw	127
  3017  0365  05D0               	andwf	___flmul@prod+2,f
  3018  0366  3000               	movlw	0
  3019  0367  05D1               	andwf	___flmul@prod+3,f
  3020  0368                     i1l1907:
  3021  0368  1C4D               	btfss	___flmul@bexp,0
  3022  0369  2B6B               	goto	u275_21
  3023  036A  2B6C               	goto	u275_20
  3024  036B                     u275_21:
  3025  036B  2B6D               	goto	i1l1911
  3026  036C                     u275_20:
  3027  036C                     i1l1909:
  3028  036C  17D0               	bsf	___flmul@prod+2,7
  3029  036D                     i1l1911:
  3030  036D  084D               	movf	___flmul@bexp,w
  3031  036E  00C2               	movwf	??___flmul
  3032  036F  1003               	clrc
  3033  0370  0C42               	rrf	??___flmul,w
  3034  0371  00C3               	movwf	??___flmul+1
  3035  0372  0843               	movf	??___flmul+1,w
  3036  0373  00D1               	movwf	___flmul@prod+3
  3037  0374                     i1l588:
  3038  0374  0847               	movf	___flmul@sign,w
  3039  0375  00C2               	movwf	??___flmul
  3040  0376  0842               	movf	??___flmul,w
  3041  0377  04D1               	iorwf	___flmul@prod+3,f
  3042  0378                     i1l1913:
  3043  0378  0851               	movf	___flmul@prod+3,w
  3044  0379  00BD               	movwf	?___flmul+3
  3045  037A  0850               	movf	___flmul@prod+2,w
  3046  037B  00BC               	movwf	?___flmul+2
  3047  037C  084F               	movf	___flmul@prod+1,w
  3048  037D  00BB               	movwf	?___flmul+1
  3049  037E  084E               	movf	___flmul@prod,w
  3050  037F  00BA               	movwf	?___flmul
  3051  0380                     i1l576:
  3052  0380  0008               	return
  3053  0381                     __end_of___flmul:
  3054                           
  3055                           	psect	text7
  3056  0C19                     __ptext7:	
  3057 ;; *************** function __Umul8_16 *****************
  3058 ;; Defined at:
  3059 ;;		line 4 in file "C:\Program Files\Microchip\xc8\v2.35\pic\sources\c90\common\Umul8_16.c"
  3060 ;; Parameters:    Size  Location     Type
  3061 ;;  multiplier      1    wreg     unsigned char 
  3062 ;;  multiplicand    1    0[COMMON] unsigned char 
  3063 ;; Auto vars:     Size  Location     Type
  3064 ;;  multiplier      1    8[COMMON] unsigned char 
  3065 ;;  word_mpld       2    6[COMMON] unsigned int 
  3066 ;;  product         2    4[COMMON] unsigned int 
  3067 ;; Return value:  Size  Location     Type
  3068 ;;                  2    0[COMMON] unsigned int 
  3069 ;; Registers used:
  3070 ;;		wreg, status,2, status,0
  3071 ;; Tracked objects:
  3072 ;;		On entry : 0/0
  3073 ;;		On exit  : 0/0
  3074 ;;		Unchanged: 0/0
  3075 ;; Data sizes:     COMMON   BANK0   BANK1   BANK3   BANK2
  3076 ;;      Params:         2       0       0       0       0
  3077 ;;      Locals:         5       0       0       0       0
  3078 ;;      Temps:          2       0       0       0       0
  3079 ;;      Totals:         9       0       0       0       0
  3080 ;;Total ram usage:        9 bytes
  3081 ;; Hardware stack levels used: 1
  3082 ;; This function calls:
  3083 ;;		Nothing
  3084 ;; This function is called by:
  3085 ;;		___flmul
  3086 ;; This function uses a non-reentrant model
  3087 ;;
  3088                           
  3089  0C19                     __Umul8_16:	
  3090                           ;psect for function __Umul8_16
  3091                           
  3092                           
  3093                           ;incstack = 0
  3094                           ; Regs used in __Umul8_16: [wreg+status,2+status,0]
  3095                           ;__Umul8_16@multiplier stored from wreg
  3096  0C19  00F8               	movwf	__Umul8_16@multiplier
  3097  0C1A                     i1l1391:
  3098  0C1A  01F4               	clrf	__Umul8_16@product
  3099  0C1B  01F5               	clrf	__Umul8_16@product+1
  3100  0C1C                     i1l1393:
  3101  0C1C  0870               	movf	__Umul8_16@multiplicand,w
  3102  0C1D  00F2               	movwf	??__Umul8_16
  3103  0C1E  01F3               	clrf	??__Umul8_16+1
  3104  0C1F  0872               	movf	??__Umul8_16,w
  3105  0C20  00F6               	movwf	__Umul8_16@word_mpld
  3106  0C21  0873               	movf	??__Umul8_16+1,w
  3107  0C22  00F7               	movwf	__Umul8_16@word_mpld+1
  3108  0C23                     i1l1395:
  3109  0C23  1C78               	btfss	__Umul8_16@multiplier,0
  3110  0C24  2C26               	goto	u151_21
  3111  0C25  2C27               	goto	u151_20
  3112  0C26                     u151_21:
  3113  0C26  2C2D               	goto	i1l595
  3114  0C27                     u151_20:
  3115  0C27                     i1l1397:
  3116  0C27  0876               	movf	__Umul8_16@word_mpld,w
  3117  0C28  07F4               	addwf	__Umul8_16@product,f
  3118  0C29  1803               	skipnc
  3119  0C2A  0AF5               	incf	__Umul8_16@product+1,f
  3120  0C2B  0877               	movf	__Umul8_16@word_mpld+1,w
  3121  0C2C  07F5               	addwf	__Umul8_16@product+1,f
  3122  0C2D                     i1l595:
  3123  0C2D  3001               	movlw	1
  3124  0C2E                     u152_25:
  3125  0C2E  1003               	clrc
  3126  0C2F  0DF6               	rlf	__Umul8_16@word_mpld,f
  3127  0C30  0DF7               	rlf	__Umul8_16@word_mpld+1,f
  3128  0C31  3EFF               	addlw	-1
  3129  0C32  1D03               	skipz
  3130  0C33  2C2E               	goto	u152_25
  3131  0C34  1003               	clrc
  3132  0C35  0CF8               	rrf	__Umul8_16@multiplier,f
  3133  0C36                     i1l1399:
  3134  0C36  0878               	movf	__Umul8_16@multiplier,w
  3135  0C37  1D03               	btfss	3,2
  3136  0C38  2C3A               	goto	u153_21
  3137  0C39  2C3B               	goto	u153_20
  3138  0C3A                     u153_21:
  3139  0C3A  2C23               	goto	i1l1395
  3140  0C3B                     u153_20:
  3141  0C3B                     i1l1401:
  3142  0C3B  0875               	movf	__Umul8_16@product+1,w
  3143  0C3C  00F1               	movwf	?__Umul8_16+1
  3144  0C3D  0874               	movf	__Umul8_16@product,w
  3145  0C3E  00F0               	movwf	?__Umul8_16
  3146  0C3F                     i1l597:
  3147  0C3F  0008               	return
  3148  0C40                     __end_of__Umul8_16:
  3149                           
  3150                           	psect	text8
  3151  0609                     __ptext8:	
  3152 ;; *************** function ___fldiv *****************
  3153 ;; Defined at:
  3154 ;;		line 8 in file "C:\Program Files\Microchip\xc8\v2.35\pic\sources\c90\common\sprcdiv.c"
  3155 ;; Parameters:    Size  Location     Type
  3156 ;;  a               4    0[BANK0 ] unsigned int 
  3157 ;;  b               4    4[BANK0 ] unsigned int 
  3158 ;; Auto vars:     Size  Location     Type
  3159 ;;  grs             4   20[BANK0 ] unsigned long 
  3160 ;;  rem             4   13[BANK0 ] unsigned long 
  3161 ;;  new_exp         2   18[BANK0 ] int 
  3162 ;;  aexp            1   25[BANK0 ] unsigned char 
  3163 ;;  bexp            1   24[BANK0 ] unsigned char 
  3164 ;;  sign            1   17[BANK0 ] unsigned char 
  3165 ;; Return value:  Size  Location     Type
  3166 ;;                  4    0[BANK0 ] unsigned char 
  3167 ;; Registers used:
  3168 ;;		wreg, status,2, status,0, btemp+1
  3169 ;; Tracked objects:
  3170 ;;		On entry : 0/0
  3171 ;;		On exit  : 0/0
  3172 ;;		Unchanged: 0/0
  3173 ;; Data sizes:     COMMON   BANK0   BANK1   BANK3   BANK2
  3174 ;;      Params:         0       8       0       0       0
  3175 ;;      Locals:         0      13       0       0       0
  3176 ;;      Temps:          0       5       0       0       0
  3177 ;;      Totals:         0      26       0       0       0
  3178 ;;Total ram usage:       26 bytes
  3179 ;; Hardware stack levels used: 1
  3180 ;; This function calls:
  3181 ;;		Nothing
  3182 ;; This function is called by:
  3183 ;;		_map
  3184 ;; This function uses a non-reentrant model
  3185 ;;
  3186                           
  3187  0609                     ___fldiv:	
  3188                           ;psect for function ___fldiv
  3189                           
  3190  0609                     i1l1635:	
  3191                           ;incstack = 0
  3192                           ; Regs used in ___fldiv: [wreg+status,2+status,0+btemp+1]
  3193                           
  3194  0609  1283               	bcf	3,5	;RP0=0, select bank0
  3195  060A  1303               	bcf	3,6	;RP1=0, select bank0
  3196  060B  0827               	movf	___fldiv@b+3,w
  3197  060C  3980               	andlw	128
  3198  060D  00A8               	movwf	??___fldiv
  3199  060E  0828               	movf	??___fldiv,w
  3200  060F  00B1               	movwf	___fldiv@sign
  3201  0610                     i1l1637:
  3202  0610  0827               	movf	___fldiv@b+3,w
  3203  0611  00A8               	movwf	??___fldiv
  3204  0612  0728               	addwf	??___fldiv,w
  3205  0613  00A9               	movwf	??___fldiv+1
  3206  0614  0829               	movf	??___fldiv+1,w
  3207  0615  00B8               	movwf	___fldiv@bexp
  3208  0616                     i1l1639:
  3209  0616  1FA6               	btfss	___fldiv@b+2,7
  3210  0617  2E19               	goto	u210_21
  3211  0618  2E1A               	goto	u210_20
  3212  0619                     u210_21:
  3213  0619  2E1B               	goto	i1l1643
  3214  061A                     u210_20:
  3215  061A                     i1l1641:
  3216  061A  1438               	bsf	___fldiv@bexp,0
  3217  061B                     i1l1643:
  3218  061B  0838               	movf	___fldiv@bexp,w
  3219  061C  1903               	btfsc	3,2
  3220  061D  2E1F               	goto	u211_21
  3221  061E  2E20               	goto	u211_20
  3222  061F                     u211_21:
  3223  061F  2E30               	goto	i1l1653
  3224  0620                     u211_20:
  3225  0620                     i1l1645:
  3226  0620  0A38               	incf	___fldiv@bexp,w
  3227  0621  1D03               	btfss	3,2
  3228  0622  2E24               	goto	u212_21
  3229  0623  2E25               	goto	u212_20
  3230  0624                     u212_21:
  3231  0624  2E2D               	goto	i1l1649
  3232  0625                     u212_20:
  3233  0625                     i1l1647:
  3234  0625  3000               	movlw	0
  3235  0626  00A7               	movwf	___fldiv@b+3
  3236  0627  3000               	movlw	0
  3237  0628  00A6               	movwf	___fldiv@b+2
  3238  0629  3000               	movlw	0
  3239  062A  00A5               	movwf	___fldiv@b+1
  3240  062B  3000               	movlw	0
  3241  062C  00A4               	movwf	___fldiv@b
  3242  062D                     i1l1649:
  3243  062D  17A6               	bsf	___fldiv@b+2,7
  3244  062E                     i1l1651:
  3245  062E  01A7               	clrf	___fldiv@b+3
  3246  062F  2E38               	goto	i1l1655
  3247  0630                     i1l1653:
  3248  0630  3000               	movlw	0
  3249  0631  00A7               	movwf	___fldiv@b+3
  3250  0632  3000               	movlw	0
  3251  0633  00A6               	movwf	___fldiv@b+2
  3252  0634  3000               	movlw	0
  3253  0635  00A5               	movwf	___fldiv@b+1
  3254  0636  3000               	movlw	0
  3255  0637  00A4               	movwf	___fldiv@b
  3256  0638                     i1l1655:
  3257  0638  0823               	movf	___fldiv@a+3,w
  3258  0639  3980               	andlw	128
  3259  063A  00A8               	movwf	??___fldiv
  3260  063B  0828               	movf	??___fldiv,w
  3261  063C  06B1               	xorwf	___fldiv@sign,f
  3262  063D                     i1l1657:
  3263  063D  0823               	movf	___fldiv@a+3,w
  3264  063E  00A8               	movwf	??___fldiv
  3265  063F  0728               	addwf	??___fldiv,w
  3266  0640  00A9               	movwf	??___fldiv+1
  3267  0641  0829               	movf	??___fldiv+1,w
  3268  0642  00B9               	movwf	___fldiv@aexp
  3269  0643                     i1l1659:
  3270  0643  1FA2               	btfss	___fldiv@a+2,7
  3271  0644  2E46               	goto	u213_21
  3272  0645  2E47               	goto	u213_20
  3273  0646                     u213_21:
  3274  0646  2E48               	goto	i1l1663
  3275  0647                     u213_20:
  3276  0647                     i1l1661:
  3277  0647  1439               	bsf	___fldiv@aexp,0
  3278  0648                     i1l1663:
  3279  0648  0839               	movf	___fldiv@aexp,w
  3280  0649  1903               	btfsc	3,2
  3281  064A  2E4C               	goto	u214_21
  3282  064B  2E4D               	goto	u214_20
  3283  064C                     u214_21:
  3284  064C  2E5D               	goto	i1l1673
  3285  064D                     u214_20:
  3286  064D                     i1l1665:
  3287  064D  0A39               	incf	___fldiv@aexp,w
  3288  064E  1D03               	btfss	3,2
  3289  064F  2E51               	goto	u215_21
  3290  0650  2E52               	goto	u215_20
  3291  0651                     u215_21:
  3292  0651  2E5A               	goto	i1l1669
  3293  0652                     u215_20:
  3294  0652                     i1l1667:
  3295  0652  3000               	movlw	0
  3296  0653  00A3               	movwf	___fldiv@a+3
  3297  0654  3000               	movlw	0
  3298  0655  00A2               	movwf	___fldiv@a+2
  3299  0656  3000               	movlw	0
  3300  0657  00A1               	movwf	___fldiv@a+1
  3301  0658  3000               	movlw	0
  3302  0659  00A0               	movwf	___fldiv@a
  3303  065A                     i1l1669:
  3304  065A  17A2               	bsf	___fldiv@a+2,7
  3305  065B                     i1l1671:
  3306  065B  01A3               	clrf	___fldiv@a+3
  3307  065C  2E65               	goto	i1l536
  3308  065D                     i1l1673:
  3309  065D  3000               	movlw	0
  3310  065E  00A3               	movwf	___fldiv@a+3
  3311  065F  3000               	movlw	0
  3312  0660  00A2               	movwf	___fldiv@a+2
  3313  0661  3000               	movlw	0
  3314  0662  00A1               	movwf	___fldiv@a+1
  3315  0663  3000               	movlw	0
  3316  0664  00A0               	movwf	___fldiv@a
  3317  0665                     i1l536:
  3318  0665  0823               	movf	___fldiv@a+3,w
  3319  0666  0422               	iorwf	___fldiv@a+2,w
  3320  0667  0421               	iorwf	___fldiv@a+1,w
  3321  0668  0420               	iorwf	___fldiv@a,w
  3322  0669  1D03               	skipz
  3323  066A  2E6C               	goto	u216_21
  3324  066B  2E6D               	goto	u216_20
  3325  066C                     u216_21:
  3326  066C  2E86               	goto	i1l1683
  3327  066D                     u216_20:
  3328  066D                     i1l1675:
  3329  066D  3000               	movlw	0
  3330  066E  00A7               	movwf	___fldiv@b+3
  3331  066F  3000               	movlw	0
  3332  0670  00A6               	movwf	___fldiv@b+2
  3333  0671  3000               	movlw	0
  3334  0672  00A5               	movwf	___fldiv@b+1
  3335  0673  3000               	movlw	0
  3336  0674  00A4               	movwf	___fldiv@b
  3337  0675  3080               	movlw	128
  3338  0676  04A6               	iorwf	___fldiv@b+2,f
  3339  0677  307F               	movlw	127
  3340  0678  04A7               	iorwf	___fldiv@b+3,f
  3341  0679                     i1l1677:
  3342  0679  0831               	movf	___fldiv@sign,w
  3343  067A  00A8               	movwf	??___fldiv
  3344  067B  0828               	movf	??___fldiv,w
  3345  067C  04A7               	iorwf	___fldiv@b+3,f
  3346  067D                     i1l1679:
  3347  067D  0827               	movf	___fldiv@b+3,w
  3348  067E  00A3               	movwf	?___fldiv+3
  3349  067F  0826               	movf	___fldiv@b+2,w
  3350  0680  00A2               	movwf	?___fldiv+2
  3351  0681  0825               	movf	___fldiv@b+1,w
  3352  0682  00A1               	movwf	?___fldiv+1
  3353  0683  0824               	movf	___fldiv@b,w
  3354  0684  00A0               	movwf	?___fldiv
  3355  0685  2FE5               	goto	i1l538
  3356  0686                     i1l1683:
  3357  0686  0838               	movf	___fldiv@bexp,w
  3358  0687  1D03               	btfss	3,2
  3359  0688  2E8A               	goto	u217_21
  3360  0689  2E8B               	goto	u217_20
  3361  068A                     u217_21:
  3362  068A  2E94               	goto	i1l1689
  3363  068B                     u217_20:
  3364  068B                     i1l1685:
  3365  068B  3000               	movlw	0
  3366  068C  00A3               	movwf	?___fldiv+3
  3367  068D  3000               	movlw	0
  3368  068E  00A2               	movwf	?___fldiv+2
  3369  068F  3000               	movlw	0
  3370  0690  00A1               	movwf	?___fldiv+1
  3371  0691  3000               	movlw	0
  3372  0692  00A0               	movwf	?___fldiv
  3373  0693  2FE5               	goto	i1l538
  3374  0694                     i1l1689:
  3375  0694  0838               	movf	___fldiv@bexp,w
  3376  0695  00A8               	movwf	??___fldiv
  3377  0696  01A9               	clrf	??___fldiv+1
  3378  0697  0829               	movf	??___fldiv+1,w
  3379  0698  00AB               	movwf	??___fldiv+3
  3380  0699  0839               	movf	___fldiv@aexp,w
  3381  069A  0228               	subwf	??___fldiv,w
  3382  069B  00AA               	movwf	??___fldiv+2
  3383  069C  1C03               	skipc
  3384  069D  03AB               	decf	??___fldiv+3,f
  3385  069E  082A               	movf	??___fldiv+2,w
  3386  069F  3E7F               	addlw	127
  3387  06A0  00B2               	movwf	___fldiv@new_exp
  3388  06A1  082B               	movf	??___fldiv+3,w
  3389  06A2  1803               	skipnc
  3390  06A3  3E01               	addlw	1
  3391  06A4  3E00               	addlw	0
  3392  06A5  00B3               	movwf	___fldiv@new_exp+1
  3393  06A6                     i1l1691:
  3394  06A6  0827               	movf	___fldiv@b+3,w
  3395  06A7  00B0               	movwf	___fldiv@rem+3
  3396  06A8  0826               	movf	___fldiv@b+2,w
  3397  06A9  00AF               	movwf	___fldiv@rem+2
  3398  06AA  0825               	movf	___fldiv@b+1,w
  3399  06AB  00AE               	movwf	___fldiv@rem+1
  3400  06AC  0824               	movf	___fldiv@b,w
  3401  06AD  00AD               	movwf	___fldiv@rem
  3402  06AE                     i1l1693:
  3403  06AE  3000               	movlw	0
  3404  06AF  00A7               	movwf	___fldiv@b+3
  3405  06B0  3000               	movlw	0
  3406  06B1  00A6               	movwf	___fldiv@b+2
  3407  06B2  3000               	movlw	0
  3408  06B3  00A5               	movwf	___fldiv@b+1
  3409  06B4  3000               	movlw	0
  3410  06B5  00A4               	movwf	___fldiv@b
  3411  06B6                     i1l1695:
  3412  06B6  3000               	movlw	0
  3413  06B7  00B7               	movwf	___fldiv@grs+3
  3414  06B8  3000               	movlw	0
  3415  06B9  00B6               	movwf	___fldiv@grs+2
  3416  06BA  3000               	movlw	0
  3417  06BB  00B5               	movwf	___fldiv@grs+1
  3418  06BC  3000               	movlw	0
  3419  06BD  00B4               	movwf	___fldiv@grs
  3420  06BE                     i1l1697:
  3421  06BE  01B9               	clrf	___fldiv@aexp
  3422  06BF  2F0A               	goto	i1l1717
  3423  06C0                     i1l1699:
  3424  06C0  0839               	movf	___fldiv@aexp,w
  3425  06C1  1903               	btfsc	3,2
  3426  06C2  2EC4               	goto	u218_21
  3427  06C3  2EC5               	goto	u218_20
  3428  06C4                     u218_21:
  3429  06C4  2EE5               	goto	i1l1709
  3430  06C5                     u218_20:
  3431  06C5                     i1l1701:
  3432  06C5  3001               	movlw	1
  3433  06C6  00A8               	movwf	??___fldiv
  3434  06C7                     u219_25:
  3435  06C7  1003               	clrc
  3436  06C8  0DAD               	rlf	___fldiv@rem,f
  3437  06C9  0DAE               	rlf	___fldiv@rem+1,f
  3438  06CA  0DAF               	rlf	___fldiv@rem+2,f
  3439  06CB  0DB0               	rlf	___fldiv@rem+3,f
  3440  06CC  0BA8               	decfsz	??___fldiv,f
  3441  06CD  2EC7               	goto	u219_25
  3442  06CE  3001               	movlw	1
  3443  06CF  00A8               	movwf	??___fldiv
  3444  06D0                     u220_25:
  3445  06D0  1003               	clrc
  3446  06D1  0DA4               	rlf	___fldiv@b,f
  3447  06D2  0DA5               	rlf	___fldiv@b+1,f
  3448  06D3  0DA6               	rlf	___fldiv@b+2,f
  3449  06D4  0DA7               	rlf	___fldiv@b+3,f
  3450  06D5  0BA8               	decfsz	??___fldiv,f
  3451  06D6  2ED0               	goto	u220_25
  3452  06D7                     i1l1703:
  3453  06D7  1FB7               	btfss	___fldiv@grs+3,7
  3454  06D8  2EDA               	goto	u221_21
  3455  06D9  2EDB               	goto	u221_20
  3456  06DA                     u221_21:
  3457  06DA  2EDC               	goto	i1l1707
  3458  06DB                     u221_20:
  3459  06DB                     i1l1705:
  3460  06DB  1424               	bsf	___fldiv@b,0
  3461  06DC                     i1l1707:
  3462  06DC  3001               	movlw	1
  3463  06DD  00A8               	movwf	??___fldiv
  3464  06DE                     u222_25:
  3465  06DE  1003               	clrc
  3466  06DF  0DB4               	rlf	___fldiv@grs,f
  3467  06E0  0DB5               	rlf	___fldiv@grs+1,f
  3468  06E1  0DB6               	rlf	___fldiv@grs+2,f
  3469  06E2  0DB7               	rlf	___fldiv@grs+3,f
  3470  06E3  0BA8               	decfsz	??___fldiv,f
  3471  06E4  2EDE               	goto	u222_25
  3472  06E5                     i1l1709:
  3473  06E5  0823               	movf	___fldiv@a+3,w
  3474  06E6  0230               	subwf	___fldiv@rem+3,w
  3475  06E7  1D03               	skipz
  3476  06E8  2EF3               	goto	u223_25
  3477  06E9  0822               	movf	___fldiv@a+2,w
  3478  06EA  022F               	subwf	___fldiv@rem+2,w
  3479  06EB  1D03               	skipz
  3480  06EC  2EF3               	goto	u223_25
  3481  06ED  0821               	movf	___fldiv@a+1,w
  3482  06EE  022E               	subwf	___fldiv@rem+1,w
  3483  06EF  1D03               	skipz
  3484  06F0  2EF3               	goto	u223_25
  3485  06F1  0820               	movf	___fldiv@a,w
  3486  06F2  022D               	subwf	___fldiv@rem,w
  3487  06F3                     u223_25:
  3488  06F3  1C03               	skipc
  3489  06F4  2EF6               	goto	u223_21
  3490  06F5  2EF7               	goto	u223_20
  3491  06F6                     u223_21:
  3492  06F6  2F06               	goto	i1l1715
  3493  06F7                     u223_20:
  3494  06F7                     i1l1711:
  3495  06F7  1737               	bsf	___fldiv@grs+3,6
  3496  06F8                     i1l1713:
  3497  06F8  0820               	movf	___fldiv@a,w
  3498  06F9  02AD               	subwf	___fldiv@rem,f
  3499  06FA  0821               	movf	___fldiv@a+1,w
  3500  06FB  1C03               	skipc
  3501  06FC  0F21               	incfsz	___fldiv@a+1,w
  3502  06FD  02AE               	subwf	___fldiv@rem+1,f
  3503  06FE  0822               	movf	___fldiv@a+2,w
  3504  06FF  1C03               	skipc
  3505  0700  0F22               	incfsz	___fldiv@a+2,w
  3506  0701  02AF               	subwf	___fldiv@rem+2,f
  3507  0702  0823               	movf	___fldiv@a+3,w
  3508  0703  1C03               	skipc
  3509  0704  0F23               	incfsz	___fldiv@a+3,w
  3510  0705  02B0               	subwf	___fldiv@rem+3,f
  3511  0706                     i1l1715:
  3512  0706  3001               	movlw	1
  3513  0707  00A8               	movwf	??___fldiv
  3514  0708  0828               	movf	??___fldiv,w
  3515  0709  07B9               	addwf	___fldiv@aexp,f
  3516  070A                     i1l1717:
  3517  070A  301A               	movlw	26
  3518  070B  0239               	subwf	___fldiv@aexp,w
  3519  070C  1C03               	skipc
  3520  070D  2F0F               	goto	u224_21
  3521  070E  2F10               	goto	u224_20
  3522  070F                     u224_21:
  3523  070F  2EC0               	goto	i1l1699
  3524  0710                     u224_20:
  3525  0710                     i1l1719:
  3526  0710  0830               	movf	___fldiv@rem+3,w
  3527  0711  042F               	iorwf	___fldiv@rem+2,w
  3528  0712  042E               	iorwf	___fldiv@rem+1,w
  3529  0713  042D               	iorwf	___fldiv@rem,w
  3530  0714  1903               	skipnz
  3531  0715  2F17               	goto	u225_21
  3532  0716  2F18               	goto	u225_20
  3533  0717                     u225_21:
  3534  0717  2F37               	goto	i1l1733
  3535  0718                     u225_20:
  3536  0718                     i1l1721:
  3537  0718  1434               	bsf	___fldiv@grs,0
  3538  0719  2F37               	goto	i1l1733
  3539  071A                     i1l1723:
  3540  071A  3001               	movlw	1
  3541  071B  00A8               	movwf	??___fldiv
  3542  071C                     u226_25:
  3543  071C  1003               	clrc
  3544  071D  0DA4               	rlf	___fldiv@b,f
  3545  071E  0DA5               	rlf	___fldiv@b+1,f
  3546  071F  0DA6               	rlf	___fldiv@b+2,f
  3547  0720  0DA7               	rlf	___fldiv@b+3,f
  3548  0721  0BA8               	decfsz	??___fldiv,f
  3549  0722  2F1C               	goto	u226_25
  3550  0723                     i1l1725:
  3551  0723  1FB7               	btfss	___fldiv@grs+3,7
  3552  0724  2F26               	goto	u227_21
  3553  0725  2F27               	goto	u227_20
  3554  0726                     u227_21:
  3555  0726  2F28               	goto	i1l1729
  3556  0727                     u227_20:
  3557  0727                     i1l1727:
  3558  0727  1424               	bsf	___fldiv@b,0
  3559  0728                     i1l1729:
  3560  0728  3001               	movlw	1
  3561  0729  00A8               	movwf	??___fldiv
  3562  072A                     u228_25:
  3563  072A  1003               	clrc
  3564  072B  0DB4               	rlf	___fldiv@grs,f
  3565  072C  0DB5               	rlf	___fldiv@grs+1,f
  3566  072D  0DB6               	rlf	___fldiv@grs+2,f
  3567  072E  0DB7               	rlf	___fldiv@grs+3,f
  3568  072F  0BA8               	decfsz	??___fldiv,f
  3569  0730  2F2A               	goto	u228_25
  3570  0731                     i1l1731:
  3571  0731  30FF               	movlw	255
  3572  0732  07B2               	addwf	___fldiv@new_exp,f
  3573  0733  1803               	skipnc
  3574  0734  0AB3               	incf	___fldiv@new_exp+1,f
  3575  0735  30FF               	movlw	255
  3576  0736  07B3               	addwf	___fldiv@new_exp+1,f
  3577  0737                     i1l1733:
  3578  0737  1FA6               	btfss	___fldiv@b+2,7
  3579  0738  2F3A               	goto	u229_21
  3580  0739  2F3B               	goto	u229_20
  3581  073A                     u229_21:
  3582  073A  2F1A               	goto	i1l1723
  3583  073B                     u229_20:
  3584  073B                     i1l1735:
  3585  073B  01B9               	clrf	___fldiv@aexp
  3586  073C                     i1l1737:
  3587  073C  1FB7               	btfss	___fldiv@grs+3,7
  3588  073D  2F3F               	goto	u230_21
  3589  073E  2F40               	goto	u230_20
  3590  073F                     u230_21:
  3591  073F  2F5C               	goto	i1l1745
  3592  0740                     u230_20:
  3593  0740                     i1l1739:
  3594  0740  30FF               	movlw	255
  3595  0741  0534               	andwf	___fldiv@grs,w
  3596  0742  00A8               	movwf	??___fldiv
  3597  0743  30FF               	movlw	255
  3598  0744  0535               	andwf	___fldiv@grs+1,w
  3599  0745  00A9               	movwf	??___fldiv+1
  3600  0746  30FF               	movlw	255
  3601  0747  0536               	andwf	___fldiv@grs+2,w
  3602  0748  00AA               	movwf	??___fldiv+2
  3603  0749  307F               	movlw	127
  3604  074A  0537               	andwf	___fldiv@grs+3,w
  3605  074B  00AB               	movwf	??___fldiv+3
  3606  074C  082B               	movf	??___fldiv+3,w
  3607  074D  042A               	iorwf	??___fldiv+2,w
  3608  074E  0429               	iorwf	??___fldiv+1,w
  3609  074F  0428               	iorwf	??___fldiv,w
  3610  0750  1903               	skipnz
  3611  0751  2F53               	goto	u231_21
  3612  0752  2F54               	goto	u231_20
  3613  0753                     u231_21:
  3614  0753  2F57               	goto	i1l552
  3615  0754                     u231_20:
  3616  0754                     i1l1741:
  3617  0754  01B9               	clrf	___fldiv@aexp
  3618  0755  0AB9               	incf	___fldiv@aexp,f
  3619  0756  2F5C               	goto	i1l1745
  3620  0757                     i1l552:
  3621  0757  1C24               	btfss	___fldiv@b,0
  3622  0758  2F5A               	goto	u232_21
  3623  0759  2F5B               	goto	u232_20
  3624  075A                     u232_21:
  3625  075A  2F5C               	goto	i1l1745
  3626  075B                     u232_20:
  3627  075B  2F54               	goto	i1l1741
  3628  075C                     i1l1745:
  3629  075C  0839               	movf	___fldiv@aexp,w
  3630  075D  1903               	btfsc	3,2
  3631  075E  2F60               	goto	u233_21
  3632  075F  2F61               	goto	u233_20
  3633  0760                     u233_21:
  3634  0760  2F92               	goto	i1l1755
  3635  0761                     u233_20:
  3636  0761                     i1l1747:
  3637  0761  3001               	movlw	1
  3638  0762  07A4               	addwf	___fldiv@b,f
  3639  0763  3000               	movlw	0
  3640  0764  1803               	skipnc
  3641  0765  3001               	movlw	1
  3642  0766  07A5               	addwf	___fldiv@b+1,f
  3643  0767  3000               	movlw	0
  3644  0768  1803               	skipnc
  3645  0769  3001               	movlw	1
  3646  076A  07A6               	addwf	___fldiv@b+2,f
  3647  076B  3000               	movlw	0
  3648  076C  1803               	skipnc
  3649  076D  3001               	movlw	1
  3650  076E  07A7               	addwf	___fldiv@b+3,f
  3651  076F                     i1l1749:
  3652  076F  1C27               	btfss	___fldiv@b+3,0
  3653  0770  2F72               	goto	u234_21
  3654  0771  2F73               	goto	u234_20
  3655  0772                     u234_21:
  3656  0772  2F92               	goto	i1l1755
  3657  0773                     u234_20:
  3658  0773                     i1l1751:
  3659  0773  0824               	movf	___fldiv@b,w
  3660  0774  00A8               	movwf	??___fldiv
  3661  0775  0825               	movf	___fldiv@b+1,w
  3662  0776  00A9               	movwf	??___fldiv+1
  3663  0777  0826               	movf	___fldiv@b+2,w
  3664  0778  00AA               	movwf	??___fldiv+2
  3665  0779  0827               	movf	___fldiv@b+3,w
  3666  077A  00AB               	movwf	??___fldiv+3
  3667  077B  3001               	movlw	1
  3668  077C  00AC               	movwf	??___fldiv+4
  3669  077D                     u235_25:
  3670  077D  0D2B               	rlf	??___fldiv+3,w
  3671  077E  0CAB               	rrf	??___fldiv+3,f
  3672  077F  0CAA               	rrf	??___fldiv+2,f
  3673  0780  0CA9               	rrf	??___fldiv+1,f
  3674  0781  0CA8               	rrf	??___fldiv,f
  3675  0782                     u235_20:
  3676  0782  0BAC               	decfsz	??___fldiv+4,f
  3677  0783  2F7D               	goto	u235_25
  3678  0784  082B               	movf	??___fldiv+3,w
  3679  0785  00A7               	movwf	___fldiv@b+3
  3680  0786  082A               	movf	??___fldiv+2,w
  3681  0787  00A6               	movwf	___fldiv@b+2
  3682  0788  0829               	movf	??___fldiv+1,w
  3683  0789  00A5               	movwf	___fldiv@b+1
  3684  078A  0828               	movf	??___fldiv,w
  3685  078B  00A4               	movwf	___fldiv@b
  3686  078C                     i1l1753:
  3687  078C  3001               	movlw	1
  3688  078D  07B2               	addwf	___fldiv@new_exp,f
  3689  078E  1803               	skipnc
  3690  078F  0AB3               	incf	___fldiv@new_exp+1,f
  3691  0790  3000               	movlw	0
  3692  0791  07B3               	addwf	___fldiv@new_exp+1,f
  3693  0792                     i1l1755:
  3694  0792  0833               	movf	___fldiv@new_exp+1,w
  3695  0793  3A80               	xorlw	128
  3696  0794  00FF               	movwf	btemp+1
  3697  0795  3080               	movlw	128
  3698  0796  027F               	subwf	btemp+1,w
  3699  0797  1D03               	skipz
  3700  0798  2F9B               	goto	u236_25
  3701  0799  30FF               	movlw	255
  3702  079A  0232               	subwf	___fldiv@new_exp,w
  3703  079B                     u236_25:
  3704  079B  1C03               	skipc
  3705  079C  2F9E               	goto	u236_21
  3706  079D  2F9F               	goto	u236_20
  3707  079E                     u236_21:
  3708  079E  2FAD               	goto	i1l1759
  3709  079F                     u236_20:
  3710  079F                     i1l1757:
  3711  079F  30FF               	movlw	255
  3712  07A0  1283               	bcf	3,5	;RP0=0, select bank0
  3713  07A1  1303               	bcf	3,6	;RP1=0, select bank0
  3714  07A2  00B2               	movwf	___fldiv@new_exp
  3715  07A3  3000               	movlw	0
  3716  07A4  00B3               	movwf	___fldiv@new_exp+1
  3717  07A5  3000               	movlw	0
  3718  07A6  00A7               	movwf	___fldiv@b+3
  3719  07A7  3000               	movlw	0
  3720  07A8  00A6               	movwf	___fldiv@b+2
  3721  07A9  3000               	movlw	0
  3722  07AA  00A5               	movwf	___fldiv@b+1
  3723  07AB  3000               	movlw	0
  3724  07AC  00A4               	movwf	___fldiv@b
  3725  07AD                     i1l1759:
  3726  07AD  1283               	bcf	3,5	;RP0=0, select bank0
  3727  07AE  1303               	bcf	3,6	;RP1=0, select bank0
  3728  07AF  0833               	movf	___fldiv@new_exp+1,w
  3729  07B0  3A80               	xorlw	128
  3730  07B1  00FF               	movwf	btemp+1
  3731  07B2  3080               	movlw	128
  3732  07B3  027F               	subwf	btemp+1,w
  3733  07B4  1D03               	skipz
  3734  07B5  2FB8               	goto	u237_25
  3735  07B6  3001               	movlw	1
  3736  07B7  0232               	subwf	___fldiv@new_exp,w
  3737  07B8                     u237_25:
  3738  07B8  1803               	skipnc
  3739  07B9  2FBB               	goto	u237_21
  3740  07BA  2FBC               	goto	u237_20
  3741  07BB                     u237_21:
  3742  07BB  2FC9               	goto	i1l558
  3743  07BC                     u237_20:
  3744  07BC                     i1l1761:
  3745  07BC  1283               	bcf	3,5	;RP0=0, select bank0
  3746  07BD  1303               	bcf	3,6	;RP1=0, select bank0
  3747  07BE  01B2               	clrf	___fldiv@new_exp
  3748  07BF  01B3               	clrf	___fldiv@new_exp+1
  3749  07C0                     i1l1763:
  3750  07C0  3000               	movlw	0
  3751  07C1  00A7               	movwf	___fldiv@b+3
  3752  07C2  3000               	movlw	0
  3753  07C3  00A6               	movwf	___fldiv@b+2
  3754  07C4  3000               	movlw	0
  3755  07C5  00A5               	movwf	___fldiv@b+1
  3756  07C6  3000               	movlw	0
  3757  07C7  00A4               	movwf	___fldiv@b
  3758  07C8                     i1l1765:
  3759  07C8  01B1               	clrf	___fldiv@sign
  3760  07C9                     i1l558:
  3761  07C9  1283               	bcf	3,5	;RP0=0, select bank0
  3762  07CA  1303               	bcf	3,6	;RP1=0, select bank0
  3763  07CB  0832               	movf	___fldiv@new_exp,w
  3764  07CC  00A8               	movwf	??___fldiv
  3765  07CD  0828               	movf	??___fldiv,w
  3766  07CE  00B8               	movwf	___fldiv@bexp
  3767  07CF                     i1l1767:
  3768  07CF  1C38               	btfss	___fldiv@bexp,0
  3769  07D0  2FD2               	goto	u238_21
  3770  07D1  2FD3               	goto	u238_20
  3771  07D2                     u238_21:
  3772  07D2  2FD5               	goto	i1l1771
  3773  07D3                     u238_20:
  3774  07D3                     i1l1769:
  3775  07D3  17A6               	bsf	___fldiv@b+2,7
  3776  07D4  2FD9               	goto	i1l560
  3777  07D5                     i1l1771:
  3778  07D5  307F               	movlw	127
  3779  07D6  00A8               	movwf	??___fldiv
  3780  07D7  0828               	movf	??___fldiv,w
  3781  07D8  05A6               	andwf	___fldiv@b+2,f
  3782  07D9                     i1l560:
  3783  07D9  0838               	movf	___fldiv@bexp,w
  3784  07DA  00A8               	movwf	??___fldiv
  3785  07DB  1003               	clrc
  3786  07DC  0C28               	rrf	??___fldiv,w
  3787  07DD  00A9               	movwf	??___fldiv+1
  3788  07DE  0829               	movf	??___fldiv+1,w
  3789  07DF  00A7               	movwf	___fldiv@b+3
  3790  07E0  0831               	movf	___fldiv@sign,w
  3791  07E1  00A8               	movwf	??___fldiv
  3792  07E2  0828               	movf	??___fldiv,w
  3793  07E3  04A7               	iorwf	___fldiv@b+3,f
  3794  07E4  2E7D               	goto	i1l1679
  3795  07E5                     i1l538:
  3796  07E5  0008               	return
  3797  07E6                     __end_of___fldiv:
  3798                           
  3799                           	psect	text9
  3800  0381                     __ptext9:	
  3801 ;; *************** function ___fladd *****************
  3802 ;; Defined at:
  3803 ;;		line 10 in file "C:\Program Files\Microchip\xc8\v2.35\pic\sources\c90\common\sprcadd.c"
  3804 ;; Parameters:    Size  Location     Type
  3805 ;;  b               4   52[BANK0 ] unsigned char 
  3806 ;;  a               4   56[BANK0 ] unsigned char 
  3807 ;; Auto vars:     Size  Location     Type
  3808 ;;  grs             1   71[BANK0 ] unsigned char 
  3809 ;;  bexp            1   70[BANK0 ] unsigned char 
  3810 ;;  aexp            1   69[BANK0 ] unsigned char 
  3811 ;;  signs           1   68[BANK0 ] unsigned char 
  3812 ;; Return value:  Size  Location     Type
  3813 ;;                  4   52[BANK0 ] unsigned char 
  3814 ;; Registers used:
  3815 ;;		wreg, status,2, status,0, btemp+1
  3816 ;; Tracked objects:
  3817 ;;		On entry : 0/0
  3818 ;;		On exit  : 0/0
  3819 ;;		Unchanged: 0/0
  3820 ;; Data sizes:     COMMON   BANK0   BANK1   BANK3   BANK2
  3821 ;;      Params:         0       8       0       0       0
  3822 ;;      Locals:         0       4       0       0       0
  3823 ;;      Temps:          0       8       0       0       0
  3824 ;;      Totals:         0      20       0       0       0
  3825 ;;Total ram usage:       20 bytes
  3826 ;; Hardware stack levels used: 1
  3827 ;; This function calls:
  3828 ;;		Nothing
  3829 ;; This function is called by:
  3830 ;;		_map
  3831 ;; This function uses a non-reentrant model
  3832 ;;
  3833                           
  3834  0381                     ___fladd:	
  3835                           ;psect for function ___fladd
  3836                           
  3837  0381                     i1l1441:	
  3838                           ;incstack = 0
  3839                           ; Regs used in ___fladd: [wreg+status,2+status,0+btemp+1]
  3840                           
  3841  0381  1283               	bcf	3,5	;RP0=0, select bank0
  3842  0382  1303               	bcf	3,6	;RP1=0, select bank0
  3843  0383  0857               	movf	___fladd@b+3,w
  3844  0384  3980               	andlw	128
  3845  0385  00DC               	movwf	??___fladd
  3846  0386  085C               	movf	??___fladd,w
  3847  0387  00E4               	movwf	___fladd@signs
  3848  0388                     i1l1443:
  3849  0388  0857               	movf	___fladd@b+3,w
  3850  0389  00DC               	movwf	??___fladd
  3851  038A  075C               	addwf	??___fladd,w
  3852  038B  00DD               	movwf	??___fladd+1
  3853  038C  085D               	movf	??___fladd+1,w
  3854  038D  00E6               	movwf	___fladd@bexp
  3855  038E                     i1l1445:
  3856  038E  1FD6               	btfss	___fladd@b+2,7
  3857  038F  2B91               	goto	u164_21
  3858  0390  2B92               	goto	u164_20
  3859  0391                     u164_21:
  3860  0391  2B93               	goto	i1l1449
  3861  0392                     u164_20:
  3862  0392                     i1l1447:
  3863  0392  1466               	bsf	___fladd@bexp,0
  3864  0393                     i1l1449:
  3865  0393  0866               	movf	___fladd@bexp,w
  3866  0394  1903               	btfsc	3,2
  3867  0395  2B97               	goto	u165_21
  3868  0396  2B98               	goto	u165_20
  3869  0397                     u165_21:
  3870  0397  2BA8               	goto	i1l1459
  3871  0398                     u165_20:
  3872  0398                     i1l1451:
  3873  0398  0A66               	incf	___fladd@bexp,w
  3874  0399  1D03               	btfss	3,2
  3875  039A  2B9C               	goto	u166_21
  3876  039B  2B9D               	goto	u166_20
  3877  039C                     u166_21:
  3878  039C  2BA5               	goto	i1l1455
  3879  039D                     u166_20:
  3880  039D                     i1l1453:
  3881  039D  3000               	movlw	0
  3882  039E  00D7               	movwf	___fladd@b+3
  3883  039F  3000               	movlw	0
  3884  03A0  00D6               	movwf	___fladd@b+2
  3885  03A1  3000               	movlw	0
  3886  03A2  00D5               	movwf	___fladd@b+1
  3887  03A3  3000               	movlw	0
  3888  03A4  00D4               	movwf	___fladd@b
  3889  03A5                     i1l1455:
  3890  03A5  17D6               	bsf	___fladd@b+2,7
  3891  03A6                     i1l1457:
  3892  03A6  01D7               	clrf	___fladd@b+3
  3893  03A7  2BB0               	goto	i1l1461
  3894  03A8                     i1l1459:
  3895  03A8  3000               	movlw	0
  3896  03A9  00D7               	movwf	___fladd@b+3
  3897  03AA  3000               	movlw	0
  3898  03AB  00D6               	movwf	___fladd@b+2
  3899  03AC  3000               	movlw	0
  3900  03AD  00D5               	movwf	___fladd@b+1
  3901  03AE  3000               	movlw	0
  3902  03AF  00D4               	movwf	___fladd@b
  3903  03B0                     i1l1461:
  3904  03B0  085B               	movf	___fladd@a+3,w
  3905  03B1  3980               	andlw	128
  3906  03B2  00DC               	movwf	??___fladd
  3907  03B3  085C               	movf	??___fladd,w
  3908  03B4  00E5               	movwf	___fladd@aexp
  3909  03B5                     i1l1463:
  3910  03B5  0865               	movf	___fladd@aexp,w
  3911  03B6  0664               	xorwf	___fladd@signs,w
  3912  03B7  1903               	skipnz
  3913  03B8  2BBA               	goto	u167_21
  3914  03B9  2BBB               	goto	u167_20
  3915  03BA                     u167_21:
  3916  03BA  2BBC               	goto	i1l1467
  3917  03BB                     u167_20:
  3918  03BB                     i1l1465:
  3919  03BB  1764               	bsf	___fladd@signs,6
  3920  03BC                     i1l1467:
  3921  03BC  085B               	movf	___fladd@a+3,w
  3922  03BD  00DC               	movwf	??___fladd
  3923  03BE  075C               	addwf	??___fladd,w
  3924  03BF  00DD               	movwf	??___fladd+1
  3925  03C0  085D               	movf	??___fladd+1,w
  3926  03C1  00E5               	movwf	___fladd@aexp
  3927  03C2                     i1l1469:
  3928  03C2  1FDA               	btfss	___fladd@a+2,7
  3929  03C3  2BC5               	goto	u168_21
  3930  03C4  2BC6               	goto	u168_20
  3931  03C5                     u168_21:
  3932  03C5  2BC7               	goto	i1l1473
  3933  03C6                     u168_20:
  3934  03C6                     i1l1471:
  3935  03C6  1465               	bsf	___fladd@aexp,0
  3936  03C7                     i1l1473:
  3937  03C7  0865               	movf	___fladd@aexp,w
  3938  03C8  1903               	btfsc	3,2
  3939  03C9  2BCB               	goto	u169_21
  3940  03CA  2BCC               	goto	u169_20
  3941  03CB                     u169_21:
  3942  03CB  2BDC               	goto	i1l1483
  3943  03CC                     u169_20:
  3944  03CC                     i1l1475:
  3945  03CC  0A65               	incf	___fladd@aexp,w
  3946  03CD  1D03               	btfss	3,2
  3947  03CE  2BD0               	goto	u170_21
  3948  03CF  2BD1               	goto	u170_20
  3949  03D0                     u170_21:
  3950  03D0  2BD9               	goto	i1l1479
  3951  03D1                     u170_20:
  3952  03D1                     i1l1477:
  3953  03D1  3000               	movlw	0
  3954  03D2  00DB               	movwf	___fladd@a+3
  3955  03D3  3000               	movlw	0
  3956  03D4  00DA               	movwf	___fladd@a+2
  3957  03D5  3000               	movlw	0
  3958  03D6  00D9               	movwf	___fladd@a+1
  3959  03D7  3000               	movlw	0
  3960  03D8  00D8               	movwf	___fladd@a
  3961  03D9                     i1l1479:
  3962  03D9  17DA               	bsf	___fladd@a+2,7
  3963  03DA                     i1l1481:
  3964  03DA  01DB               	clrf	___fladd@a+3
  3965  03DB  2BE4               	goto	i1l480
  3966  03DC                     i1l1483:
  3967  03DC  3000               	movlw	0
  3968  03DD  00DB               	movwf	___fladd@a+3
  3969  03DE  3000               	movlw	0
  3970  03DF  00DA               	movwf	___fladd@a+2
  3971  03E0  3000               	movlw	0
  3972  03E1  00D9               	movwf	___fladd@a+1
  3973  03E2  3000               	movlw	0
  3974  03E3  00D8               	movwf	___fladd@a
  3975  03E4                     i1l480:
  3976  03E4  0866               	movf	___fladd@bexp,w
  3977  03E5  0265               	subwf	___fladd@aexp,w
  3978  03E6  1803               	skipnc
  3979  03E7  2BE9               	goto	u171_21
  3980  03E8  2BEA               	goto	u171_20
  3981  03E9                     u171_21:
  3982  03E9  2C2E               	goto	i1l1519
  3983  03EA                     u171_20:
  3984  03EA                     i1l1485:
  3985  03EA  1F64               	btfss	___fladd@signs,6
  3986  03EB  2BED               	goto	u172_21
  3987  03EC  2BEE               	goto	u172_20
  3988  03ED                     u172_21:
  3989  03ED  2BF2               	goto	i1l1489
  3990  03EE                     u172_20:
  3991  03EE                     i1l1487:
  3992  03EE  3080               	movlw	128
  3993  03EF  00DC               	movwf	??___fladd
  3994  03F0  085C               	movf	??___fladd,w
  3995  03F1  06E4               	xorwf	___fladd@signs,f
  3996  03F2                     i1l1489:
  3997  03F2  0866               	movf	___fladd@bexp,w
  3998  03F3  00DC               	movwf	??___fladd
  3999  03F4  085C               	movf	??___fladd,w
  4000  03F5  00E7               	movwf	___fladd@grs
  4001  03F6                     i1l1491:
  4002  03F6  0865               	movf	___fladd@aexp,w
  4003  03F7  00DC               	movwf	??___fladd
  4004  03F8  085C               	movf	??___fladd,w
  4005  03F9  00E6               	movwf	___fladd@bexp
  4006  03FA                     i1l1493:
  4007  03FA  0867               	movf	___fladd@grs,w
  4008  03FB  00DC               	movwf	??___fladd
  4009  03FC  085C               	movf	??___fladd,w
  4010  03FD  00E5               	movwf	___fladd@aexp
  4011  03FE                     i1l1495:
  4012  03FE  0854               	movf	___fladd@b,w
  4013  03FF  00DC               	movwf	??___fladd
  4014  0400  085C               	movf	??___fladd,w
  4015  0401  00E7               	movwf	___fladd@grs
  4016  0402                     i1l1497:
  4017  0402  0858               	movf	___fladd@a,w
  4018  0403  00DC               	movwf	??___fladd
  4019  0404  085C               	movf	??___fladd,w
  4020  0405  00D4               	movwf	___fladd@b
  4021  0406                     i1l1499:
  4022  0406  0867               	movf	___fladd@grs,w
  4023  0407  00DC               	movwf	??___fladd
  4024  0408  085C               	movf	??___fladd,w
  4025  0409  00D8               	movwf	___fladd@a
  4026  040A                     i1l1501:
  4027  040A  0855               	movf	___fladd@b+1,w
  4028  040B  00DC               	movwf	??___fladd
  4029  040C  085C               	movf	??___fladd,w
  4030  040D  00E7               	movwf	___fladd@grs
  4031  040E                     i1l1503:
  4032  040E  0859               	movf	___fladd@a+1,w
  4033  040F  00DC               	movwf	??___fladd
  4034  0410  085C               	movf	??___fladd,w
  4035  0411  00D5               	movwf	___fladd@b+1
  4036  0412                     i1l1505:
  4037  0412  0867               	movf	___fladd@grs,w
  4038  0413  00DC               	movwf	??___fladd
  4039  0414  085C               	movf	??___fladd,w
  4040  0415  00D9               	movwf	___fladd@a+1
  4041  0416                     i1l1507:
  4042  0416  0856               	movf	___fladd@b+2,w
  4043  0417  00DC               	movwf	??___fladd
  4044  0418  085C               	movf	??___fladd,w
  4045  0419  00E7               	movwf	___fladd@grs
  4046  041A                     i1l1509:
  4047  041A  085A               	movf	___fladd@a+2,w
  4048  041B  00DC               	movwf	??___fladd
  4049  041C  085C               	movf	??___fladd,w
  4050  041D  00D6               	movwf	___fladd@b+2
  4051  041E                     i1l1511:
  4052  041E  0867               	movf	___fladd@grs,w
  4053  041F  00DC               	movwf	??___fladd
  4054  0420  085C               	movf	??___fladd,w
  4055  0421  00DA               	movwf	___fladd@a+2
  4056  0422                     i1l1513:
  4057  0422  0857               	movf	___fladd@b+3,w
  4058  0423  00DC               	movwf	??___fladd
  4059  0424  085C               	movf	??___fladd,w
  4060  0425  00E7               	movwf	___fladd@grs
  4061  0426                     i1l1515:
  4062  0426  085B               	movf	___fladd@a+3,w
  4063  0427  00DC               	movwf	??___fladd
  4064  0428  085C               	movf	??___fladd,w
  4065  0429  00D7               	movwf	___fladd@b+3
  4066  042A                     i1l1517:
  4067  042A  0867               	movf	___fladd@grs,w
  4068  042B  00DC               	movwf	??___fladd
  4069  042C  085C               	movf	??___fladd,w
  4070  042D  00DB               	movwf	___fladd@a+3
  4071  042E                     i1l1519:
  4072  042E  01E7               	clrf	___fladd@grs
  4073  042F                     i1l1521:
  4074  042F  0865               	movf	___fladd@aexp,w
  4075  0430  00DC               	movwf	??___fladd
  4076  0431  01DD               	clrf	??___fladd+1
  4077  0432  085D               	movf	??___fladd+1,w
  4078  0433  00DF               	movwf	??___fladd+3
  4079  0434  0866               	movf	___fladd@bexp,w
  4080  0435  025C               	subwf	??___fladd,w
  4081  0436  00DE               	movwf	??___fladd+2
  4082  0437  1C03               	skipc
  4083  0438  03DF               	decf	??___fladd+3,f
  4084  0439  085F               	movf	??___fladd+3,w
  4085  043A  3A80               	xorlw	128
  4086  043B  00FF               	movwf	btemp+1
  4087  043C  3080               	movlw	128
  4088  043D  027F               	subwf	btemp+1,w
  4089  043E  1D03               	skipz
  4090  043F  2C42               	goto	u173_25
  4091  0440  301A               	movlw	26
  4092  0441  025E               	subwf	??___fladd+2,w
  4093  0442                     u173_25:
  4094  0442  1C03               	skipc
  4095  0443  2C45               	goto	u173_21
  4096  0444  2C46               	goto	u173_20
  4097  0445                     u173_21:
  4098  0445  2C83               	goto	i1l1537
  4099  0446                     u173_20:
  4100  0446                     i1l1523:
  4101  0446  1283               	bcf	3,5	;RP0=0, select bank0
  4102  0447  1303               	bcf	3,6	;RP1=0, select bank0
  4103  0448  0857               	movf	___fladd@b+3,w
  4104  0449  0456               	iorwf	___fladd@b+2,w
  4105  044A  0455               	iorwf	___fladd@b+1,w
  4106  044B  0454               	iorwf	___fladd@b,w
  4107  044C  1D03               	skipz
  4108  044D  2C4F               	goto	u174_21
  4109  044E  2C51               	goto	u174_20
  4110  044F                     u174_21:
  4111  044F  3001               	movlw	1
  4112  0450  2C52               	goto	u175_20
  4113  0451                     u174_20:
  4114  0451  3000               	movlw	0
  4115  0452                     u175_20:
  4116  0452  00DC               	movwf	??___fladd
  4117  0453  085C               	movf	??___fladd,w
  4118  0454  00E7               	movwf	___fladd@grs
  4119  0455  3000               	movlw	0
  4120  0456  00D7               	movwf	___fladd@b+3
  4121  0457  3000               	movlw	0
  4122  0458  00D6               	movwf	___fladd@b+2
  4123  0459  3000               	movlw	0
  4124  045A  00D5               	movwf	___fladd@b+1
  4125  045B  3000               	movlw	0
  4126  045C  00D4               	movwf	___fladd@b
  4127  045D  0865               	movf	___fladd@aexp,w
  4128  045E  00DC               	movwf	??___fladd
  4129  045F  085C               	movf	??___fladd,w
  4130  0460  00E6               	movwf	___fladd@bexp
  4131  0461  2C8B               	goto	i1l484
  4132  0462                     i1l486:
  4133  0462  1C67               	btfss	___fladd@grs,0
  4134  0463  2C65               	goto	u176_21
  4135  0464  2C66               	goto	u176_20
  4136  0465                     u176_21:
  4137  0465  2C6F               	goto	i1l1527
  4138  0466                     u176_20:
  4139  0466                     i1l1525:
  4140  0466  0867               	movf	___fladd@grs,w
  4141  0467  00DC               	movwf	??___fladd
  4142  0468  1003               	clrc
  4143  0469  0C5C               	rrf	??___fladd,w
  4144  046A  3801               	iorlw	1
  4145  046B  00DD               	movwf	??___fladd+1
  4146  046C  085D               	movf	??___fladd+1,w
  4147  046D  00E7               	movwf	___fladd@grs
  4148  046E  2C71               	goto	i1l1529
  4149  046F                     i1l1527:
  4150  046F  1003               	clrc
  4151  0470  0CE7               	rrf	___fladd@grs,f
  4152  0471                     i1l1529:
  4153  0471  1C54               	btfss	___fladd@b,0
  4154  0472  2C74               	goto	u177_21
  4155  0473  2C75               	goto	u177_20
  4156  0474                     u177_21:
  4157  0474  2C76               	goto	i1l1533
  4158  0475                     u177_20:
  4159  0475                     i1l1531:
  4160  0475  17E7               	bsf	___fladd@grs,7
  4161  0476                     i1l1533:
  4162  0476  3001               	movlw	1
  4163  0477  00DC               	movwf	??___fladd
  4164  0478                     u178_25:
  4165  0478  0D57               	rlf	___fladd@b+3,w
  4166  0479  0CD7               	rrf	___fladd@b+3,f
  4167  047A  0CD6               	rrf	___fladd@b+2,f
  4168  047B  0CD5               	rrf	___fladd@b+1,f
  4169  047C  0CD4               	rrf	___fladd@b,f
  4170  047D  0BDC               	decfsz	??___fladd& (0+127),f
  4171  047E  2C78               	goto	u178_25
  4172  047F                     i1l1535:
  4173  047F  3001               	movlw	1
  4174  0480  00DC               	movwf	??___fladd
  4175  0481  085C               	movf	??___fladd,w
  4176  0482  07E6               	addwf	___fladd@bexp,f
  4177  0483                     i1l1537:
  4178  0483  1283               	bcf	3,5	;RP0=0, select bank0
  4179  0484  1303               	bcf	3,6	;RP1=0, select bank0
  4180  0485  0865               	movf	___fladd@aexp,w
  4181  0486  0266               	subwf	___fladd@bexp,w
  4182  0487  1C03               	skipc
  4183  0488  2C8A               	goto	u179_21
  4184  0489  2C8B               	goto	u179_20
  4185  048A                     u179_21:
  4186  048A  2C62               	goto	i1l486
  4187  048B                     u179_20:
  4188  048B                     i1l484:
  4189  048B  1B64               	btfsc	___fladd@signs,6
  4190  048C  2C8E               	goto	u180_21
  4191  048D  2C8F               	goto	u180_20
  4192  048E                     u180_21:
  4193  048E  2CDA               	goto	i1l1563
  4194  048F                     u180_20:
  4195  048F                     i1l1539:
  4196  048F  0866               	movf	___fladd@bexp,w
  4197  0490  1D03               	btfss	3,2
  4198  0491  2C93               	goto	u181_21
  4199  0492  2C94               	goto	u181_20
  4200  0493                     u181_21:
  4201  0493  2C9D               	goto	i1l1545
  4202  0494                     u181_20:
  4203  0494                     i1l1541:
  4204  0494  3000               	movlw	0
  4205  0495  00D7               	movwf	?___fladd+3
  4206  0496  3000               	movlw	0
  4207  0497  00D6               	movwf	?___fladd+2
  4208  0498  3000               	movlw	0
  4209  0499  00D5               	movwf	?___fladd+1
  4210  049A  3000               	movlw	0
  4211  049B  00D4               	movwf	?___fladd
  4212  049C  2E08               	goto	i1l493
  4213  049D                     i1l1545:
  4214  049D  0858               	movf	___fladd@a,w
  4215  049E  07D4               	addwf	___fladd@b,f
  4216  049F  0859               	movf	___fladd@a+1,w
  4217  04A0  1103               	clrz
  4218  04A1  1803               	skipnc
  4219  04A2  3E01               	addlw	1
  4220  04A3  1903               	skipnz
  4221  04A4  2CA6               	goto	u182_21
  4222  04A5  07D5               	addwf	___fladd@b+1,f
  4223  04A6                     u182_21:
  4224  04A6  085A               	movf	___fladd@a+2,w
  4225  04A7  1103               	clrz
  4226  04A8  1803               	skipnc
  4227  04A9  3E01               	addlw	1
  4228  04AA  1903               	skipnz
  4229  04AB  2CAD               	goto	u182_22
  4230  04AC  07D6               	addwf	___fladd@b+2,f
  4231  04AD                     u182_22:
  4232  04AD  085B               	movf	___fladd@a+3,w
  4233  04AE  1103               	clrz
  4234  04AF  1803               	skipnc
  4235  04B0  3E01               	addlw	1
  4236  04B1  1903               	skipnz
  4237  04B2  2CB4               	goto	u182_23
  4238  04B3  07D7               	addwf	___fladd@b+3,f
  4239  04B4                     u182_23:
  4240  04B4                     i1l1547:
  4241  04B4  1C57               	btfss	___fladd@b+3,0
  4242  04B5  2CB7               	goto	u183_21
  4243  04B6  2CB8               	goto	u183_20
  4244  04B7                     u183_21:
  4245  04B7  2D8E               	goto	i1l1597
  4246  04B8                     u183_20:
  4247  04B8                     i1l1549:
  4248  04B8  1C67               	btfss	___fladd@grs,0
  4249  04B9  2CBB               	goto	u184_21
  4250  04BA  2CBC               	goto	u184_20
  4251  04BB                     u184_21:
  4252  04BB  2CC5               	goto	i1l1553
  4253  04BC                     u184_20:
  4254  04BC                     i1l1551:
  4255  04BC  0867               	movf	___fladd@grs,w
  4256  04BD  00DC               	movwf	??___fladd
  4257  04BE  1003               	clrc
  4258  04BF  0C5C               	rrf	??___fladd,w
  4259  04C0  3801               	iorlw	1
  4260  04C1  00DD               	movwf	??___fladd+1
  4261  04C2  085D               	movf	??___fladd+1,w
  4262  04C3  00E7               	movwf	___fladd@grs
  4263  04C4  2CC7               	goto	i1l1555
  4264  04C5                     i1l1553:
  4265  04C5  1003               	clrc
  4266  04C6  0CE7               	rrf	___fladd@grs,f
  4267  04C7                     i1l1555:
  4268  04C7  1C54               	btfss	___fladd@b,0
  4269  04C8  2CCA               	goto	u185_21
  4270  04C9  2CCB               	goto	u185_20
  4271  04CA                     u185_21:
  4272  04CA  2CCC               	goto	i1l1559
  4273  04CB                     u185_20:
  4274  04CB                     i1l1557:
  4275  04CB  17E7               	bsf	___fladd@grs,7
  4276  04CC                     i1l1559:
  4277  04CC  3001               	movlw	1
  4278  04CD  00DC               	movwf	??___fladd
  4279  04CE                     u186_25:
  4280  04CE  0D57               	rlf	___fladd@b+3,w
  4281  04CF  0CD7               	rrf	___fladd@b+3,f
  4282  04D0  0CD6               	rrf	___fladd@b+2,f
  4283  04D1  0CD5               	rrf	___fladd@b+1,f
  4284  04D2  0CD4               	rrf	___fladd@b,f
  4285  04D3  0BDC               	decfsz	??___fladd& (0+127),f
  4286  04D4  2CCE               	goto	u186_25
  4287  04D5                     i1l1561:
  4288  04D5  3001               	movlw	1
  4289  04D6  00DC               	movwf	??___fladd
  4290  04D7  085C               	movf	??___fladd,w
  4291  04D8  07E6               	addwf	___fladd@bexp,f
  4292  04D9  2D8E               	goto	i1l1597
  4293  04DA                     i1l1563:
  4294  04DA  0857               	movf	___fladd@b+3,w
  4295  04DB  3A80               	xorlw	128
  4296  04DC  00FF               	movwf	btemp+1
  4297  04DD  085B               	movf	___fladd@a+3,w
  4298  04DE  3A80               	xorlw	128
  4299  04DF  027F               	subwf	btemp+1,w
  4300  04E0  1D03               	skipz
  4301  04E1  2CEC               	goto	u187_23
  4302  04E2  085A               	movf	___fladd@a+2,w
  4303  04E3  0256               	subwf	___fladd@b+2,w
  4304  04E4  1D03               	skipz
  4305  04E5  2CEC               	goto	u187_23
  4306  04E6  0859               	movf	___fladd@a+1,w
  4307  04E7  0255               	subwf	___fladd@b+1,w
  4308  04E8  1D03               	skipz
  4309  04E9  2CEC               	goto	u187_23
  4310  04EA  0858               	movf	___fladd@a,w
  4311  04EB  0254               	subwf	___fladd@b,w
  4312  04EC                     u187_23:
  4313  04EC  1803               	skipnc
  4314  04ED  2CEF               	goto	u187_21
  4315  04EE  2CF0               	goto	u187_20
  4316  04EF                     u187_21:
  4317  04EF  2D48               	goto	i1l1573
  4318  04F0                     u187_20:
  4319  04F0                     i1l1565:
  4320  04F0  30FF               	movlw	255
  4321  04F1  00DC               	movwf	??___fladd
  4322  04F2  30FF               	movlw	255
  4323  04F3  00DD               	movwf	??___fladd+1
  4324  04F4  30FF               	movlw	255
  4325  04F5  00DE               	movwf	??___fladd+2
  4326  04F6  30FF               	movlw	255
  4327  04F7  00DF               	movwf	??___fladd+3
  4328  04F8  0858               	movf	___fladd@a,w
  4329  04F9  00E0               	movwf	??___fladd+4
  4330  04FA  0859               	movf	___fladd@a+1,w
  4331  04FB  00E1               	movwf	??___fladd+5
  4332  04FC  085A               	movf	___fladd@a+2,w
  4333  04FD  00E2               	movwf	??___fladd+6
  4334  04FE  085B               	movf	___fladd@a+3,w
  4335  04FF  00E3               	movwf	??___fladd+7
  4336  0500  0854               	movf	___fladd@b,w
  4337  0501  02E0               	subwf	??___fladd+4,f
  4338  0502  0855               	movf	___fladd@b+1,w
  4339  0503  1C03               	skipc
  4340  0504  0F55               	incfsz	___fladd@b+1,w
  4341  0505  2D07               	goto	u188_21
  4342  0506  2D08               	goto	u188_22
  4343  0507                     u188_21:
  4344  0507  02E1               	subwf	??___fladd+5,f
  4345  0508                     u188_22:
  4346  0508  0856               	movf	___fladd@b+2,w
  4347  0509  1C03               	skipc
  4348  050A  0F56               	incfsz	___fladd@b+2,w
  4349  050B  2D0D               	goto	u188_23
  4350  050C  2D0E               	goto	u188_24
  4351  050D                     u188_23:
  4352  050D  02E2               	subwf	??___fladd+6,f
  4353  050E                     u188_24:
  4354  050E  0857               	movf	___fladd@b+3,w
  4355  050F  1C03               	skipc
  4356  0510  0F57               	incfsz	___fladd@b+3,w
  4357  0511  2D13               	goto	u188_25
  4358  0512  2D14               	goto	u188_26
  4359  0513                     u188_25:
  4360  0513  02E3               	subwf	??___fladd+7,f
  4361  0514                     u188_26:
  4362  0514  0860               	movf	??___fladd+4,w
  4363  0515  07DC               	addwf	??___fladd,f
  4364  0516  0861               	movf	??___fladd+5,w
  4365  0517  1803               	skipnc
  4366  0518  0F61               	incfsz	??___fladd+5,w
  4367  0519  2D1B               	goto	u189_20
  4368  051A  2D1C               	goto	u189_21
  4369  051B                     u189_20:
  4370  051B  07DD               	addwf	??___fladd+1,f
  4371  051C                     u189_21:
  4372  051C  0862               	movf	??___fladd+6,w
  4373  051D  1803               	skipnc
  4374  051E  0F62               	incfsz	??___fladd+6,w
  4375  051F  2D21               	goto	u189_22
  4376  0520  2D22               	goto	u189_23
  4377  0521                     u189_22:
  4378  0521  07DE               	addwf	??___fladd+2,f
  4379  0522                     u189_23:
  4380  0522  0863               	movf	??___fladd+7,w
  4381  0523  1803               	skipnc
  4382  0524  0A63               	incf	??___fladd+7,w
  4383  0525  07DF               	addwf	??___fladd+3,f
  4384  0526  085F               	movf	??___fladd+3,w
  4385  0527  00D7               	movwf	___fladd@b+3
  4386  0528  085E               	movf	??___fladd+2,w
  4387  0529  00D6               	movwf	___fladd@b+2
  4388  052A  085D               	movf	??___fladd+1,w
  4389  052B  00D5               	movwf	___fladd@b+1
  4390  052C  085C               	movf	??___fladd,w
  4391  052D  00D4               	movwf	___fladd@b
  4392  052E                     i1l1567:
  4393  052E  3080               	movlw	128
  4394  052F  00DC               	movwf	??___fladd
  4395  0530  085C               	movf	??___fladd,w
  4396  0531  06E4               	xorwf	___fladd@signs,f
  4397  0532  09E7               	comf	___fladd@grs,f
  4398  0533  0AE7               	incf	___fladd@grs,f
  4399  0534                     i1l1569:
  4400  0534  0867               	movf	___fladd@grs,w
  4401  0535  1D03               	btfss	3,2
  4402  0536  2D38               	goto	u190_21
  4403  0537  2D39               	goto	u190_20
  4404  0538                     u190_21:
  4405  0538  2D56               	goto	i1l501
  4406  0539                     u190_20:
  4407  0539                     i1l1571:
  4408  0539  3001               	movlw	1
  4409  053A  07D4               	addwf	___fladd@b,f
  4410  053B  3000               	movlw	0
  4411  053C  1803               	skipnc
  4412  053D  3001               	movlw	1
  4413  053E  07D5               	addwf	___fladd@b+1,f
  4414  053F  3000               	movlw	0
  4415  0540  1803               	skipnc
  4416  0541  3001               	movlw	1
  4417  0542  07D6               	addwf	___fladd@b+2,f
  4418  0543  3000               	movlw	0
  4419  0544  1803               	skipnc
  4420  0545  3001               	movlw	1
  4421  0546  07D7               	addwf	___fladd@b+3,f
  4422  0547  2D56               	goto	i1l501
  4423  0548                     i1l1573:
  4424  0548  0858               	movf	___fladd@a,w
  4425  0549  02D4               	subwf	___fladd@b,f
  4426  054A  0859               	movf	___fladd@a+1,w
  4427  054B  1C03               	skipc
  4428  054C  0F59               	incfsz	___fladd@a+1,w
  4429  054D  02D5               	subwf	___fladd@b+1,f
  4430  054E  085A               	movf	___fladd@a+2,w
  4431  054F  1C03               	skipc
  4432  0550  0F5A               	incfsz	___fladd@a+2,w
  4433  0551  02D6               	subwf	___fladd@b+2,f
  4434  0552  085B               	movf	___fladd@a+3,w
  4435  0553  1C03               	skipc
  4436  0554  0F5B               	incfsz	___fladd@a+3,w
  4437  0555  02D7               	subwf	___fladd@b+3,f
  4438  0556                     i1l501:
  4439  0556  0857               	movf	___fladd@b+3,w
  4440  0557  0456               	iorwf	___fladd@b+2,w
  4441  0558  0455               	iorwf	___fladd@b+1,w
  4442  0559  0454               	iorwf	___fladd@b,w
  4443  055A  1D03               	skipz
  4444  055B  2D5D               	goto	u191_21
  4445  055C  2D5E               	goto	u191_20
  4446  055D                     u191_21:
  4447  055D  2D8A               	goto	i1l1595
  4448  055E                     u191_20:
  4449  055E                     i1l1575:
  4450  055E  0867               	movf	___fladd@grs,w
  4451  055F  1D03               	btfss	3,2
  4452  0560  2D62               	goto	u192_21
  4453  0561  2D63               	goto	u192_20
  4454  0562                     u192_21:
  4455  0562  2D8A               	goto	i1l1595
  4456  0563                     u192_20:
  4457  0563                     i1l1577:
  4458  0563  3000               	movlw	0
  4459  0564  00D7               	movwf	?___fladd+3
  4460  0565  3000               	movlw	0
  4461  0566  00D6               	movwf	?___fladd+2
  4462  0567  3000               	movlw	0
  4463  0568  00D5               	movwf	?___fladd+1
  4464  0569  3000               	movlw	0
  4465  056A  00D4               	movwf	?___fladd
  4466  056B  2E08               	goto	i1l493
  4467  056C                     i1l1581:
  4468  056C  3001               	movlw	1
  4469  056D  00DC               	movwf	??___fladd
  4470  056E                     u193_25:
  4471  056E  1003               	clrc
  4472  056F  0DD4               	rlf	___fladd@b,f
  4473  0570  0DD5               	rlf	___fladd@b+1,f
  4474  0571  0DD6               	rlf	___fladd@b+2,f
  4475  0572  0DD7               	rlf	___fladd@b+3,f
  4476  0573  0BDC               	decfsz	??___fladd,f
  4477  0574  2D6E               	goto	u193_25
  4478  0575                     i1l1583:
  4479  0575  1FE7               	btfss	___fladd@grs,7
  4480  0576  2D78               	goto	u194_21
  4481  0577  2D79               	goto	u194_20
  4482  0578                     u194_21:
  4483  0578  2D7A               	goto	i1l505
  4484  0579                     u194_20:
  4485  0579                     i1l1585:
  4486  0579  1454               	bsf	___fladd@b,0
  4487  057A                     i1l505:
  4488  057A  1C67               	btfss	___fladd@grs,0
  4489  057B  2D7D               	goto	u195_21
  4490  057C  2D7E               	goto	u195_20
  4491  057D                     u195_21:
  4492  057D  2D81               	goto	i1l1589
  4493  057E                     u195_20:
  4494  057E                     i1l1587:
  4495  057E  1403               	setc
  4496  057F  0DE7               	rlf	___fladd@grs,f
  4497  0580  2D83               	goto	i1l1591
  4498  0581                     i1l1589:
  4499  0581  1003               	clrc
  4500  0582  0DE7               	rlf	___fladd@grs,f
  4501  0583                     i1l1591:
  4502  0583  0866               	movf	___fladd@bexp,w
  4503  0584  1903               	btfsc	3,2
  4504  0585  2D87               	goto	u196_21
  4505  0586  2D88               	goto	u196_20
  4506  0587                     u196_21:
  4507  0587  2D8A               	goto	i1l1595
  4508  0588                     u196_20:
  4509  0588                     i1l1593:
  4510  0588  3001               	movlw	1
  4511  0589  02E6               	subwf	___fladd@bexp,f
  4512  058A                     i1l1595:
  4513  058A  1FD6               	btfss	___fladd@b+2,7
  4514  058B  2D8D               	goto	u197_21
  4515  058C  2D8E               	goto	u197_20
  4516  058D                     u197_21:
  4517  058D  2D6C               	goto	i1l1581
  4518  058E                     u197_20:
  4519  058E                     i1l1597:
  4520  058E  01E5               	clrf	___fladd@aexp
  4521  058F                     i1l1599:
  4522  058F  1FE7               	btfss	___fladd@grs,7
  4523  0590  2D92               	goto	u198_21
  4524  0591  2D93               	goto	u198_20
  4525  0592                     u198_21:
  4526  0592  2DA1               	goto	i1l1607
  4527  0593                     u198_20:
  4528  0593                     i1l1601:
  4529  0593  0867               	movf	___fladd@grs,w
  4530  0594  397F               	andlw	127
  4531  0595  1903               	btfsc	3,2
  4532  0596  2D98               	goto	u199_21
  4533  0597  2D99               	goto	u199_20
  4534  0598                     u199_21:
  4535  0598  2D9C               	goto	i1l511
  4536  0599                     u199_20:
  4537  0599                     i1l1603:
  4538  0599  01E5               	clrf	___fladd@aexp
  4539  059A  0AE5               	incf	___fladd@aexp,f
  4540  059B  2DA1               	goto	i1l1607
  4541  059C                     i1l511:
  4542  059C  1C54               	btfss	___fladd@b,0
  4543  059D  2D9F               	goto	u200_21
  4544  059E  2DA0               	goto	u200_20
  4545  059F                     u200_21:
  4546  059F  2DA1               	goto	i1l1607
  4547  05A0                     u200_20:
  4548  05A0  2D99               	goto	i1l1603
  4549  05A1                     i1l1607:
  4550  05A1  0865               	movf	___fladd@aexp,w
  4551  05A2  1903               	btfsc	3,2
  4552  05A3  2DA5               	goto	u201_21
  4553  05A4  2DA6               	goto	u201_20
  4554  05A5                     u201_21:
  4555  05A5  2DDA               	goto	i1l514
  4556  05A6                     u201_20:
  4557  05A6                     i1l1609:
  4558  05A6  3001               	movlw	1
  4559  05A7  07D4               	addwf	___fladd@b,f
  4560  05A8  3000               	movlw	0
  4561  05A9  1803               	skipnc
  4562  05AA  3001               	movlw	1
  4563  05AB  07D5               	addwf	___fladd@b+1,f
  4564  05AC  3000               	movlw	0
  4565  05AD  1803               	skipnc
  4566  05AE  3001               	movlw	1
  4567  05AF  07D6               	addwf	___fladd@b+2,f
  4568  05B0  3000               	movlw	0
  4569  05B1  1803               	skipnc
  4570  05B2  3001               	movlw	1
  4571  05B3  07D7               	addwf	___fladd@b+3,f
  4572  05B4                     i1l1611:
  4573  05B4  1C57               	btfss	___fladd@b+3,0
  4574  05B5  2DB7               	goto	u202_21
  4575  05B6  2DB8               	goto	u202_20
  4576  05B7                     u202_21:
  4577  05B7  2DDA               	goto	i1l514
  4578  05B8                     u202_20:
  4579  05B8                     i1l1613:
  4580  05B8  0854               	movf	___fladd@b,w
  4581  05B9  00DC               	movwf	??___fladd
  4582  05BA  0855               	movf	___fladd@b+1,w
  4583  05BB  00DD               	movwf	??___fladd+1
  4584  05BC  0856               	movf	___fladd@b+2,w
  4585  05BD  00DE               	movwf	??___fladd+2
  4586  05BE  0857               	movf	___fladd@b+3,w
  4587  05BF  00DF               	movwf	??___fladd+3
  4588  05C0  3001               	movlw	1
  4589  05C1  00E0               	movwf	??___fladd+4
  4590  05C2                     u203_25:
  4591  05C2  0D5F               	rlf	??___fladd+3,w
  4592  05C3  0CDF               	rrf	??___fladd+3,f
  4593  05C4  0CDE               	rrf	??___fladd+2,f
  4594  05C5  0CDD               	rrf	??___fladd+1,f
  4595  05C6  0CDC               	rrf	??___fladd,f
  4596  05C7                     u203_20:
  4597  05C7  0BE0               	decfsz	??___fladd+4,f
  4598  05C8  2DC2               	goto	u203_25
  4599  05C9  085F               	movf	??___fladd+3,w
  4600  05CA  00D7               	movwf	___fladd@b+3
  4601  05CB  085E               	movf	??___fladd+2,w
  4602  05CC  00D6               	movwf	___fladd@b+2
  4603  05CD  085D               	movf	??___fladd+1,w
  4604  05CE  00D5               	movwf	___fladd@b+1
  4605  05CF  085C               	movf	??___fladd,w
  4606  05D0  00D4               	movwf	___fladd@b
  4607  05D1  0A66               	incf	___fladd@bexp,w
  4608  05D2  1903               	btfsc	3,2
  4609  05D3  2DD5               	goto	u204_21
  4610  05D4  2DD6               	goto	u204_20
  4611  05D5                     u204_21:
  4612  05D5  2DDA               	goto	i1l514
  4613  05D6                     u204_20:
  4614  05D6                     i1l1615:
  4615  05D6  3001               	movlw	1
  4616  05D7  00DC               	movwf	??___fladd
  4617  05D8  085C               	movf	??___fladd,w
  4618  05D9  07E6               	addwf	___fladd@bexp,f
  4619  05DA                     i1l514:
  4620  05DA  0A66               	incf	___fladd@bexp,w
  4621  05DB  1903               	btfsc	3,2
  4622  05DC  2DDE               	goto	u205_21
  4623  05DD  2DDF               	goto	u205_20
  4624  05DE                     u205_21:
  4625  05DE  2DE4               	goto	i1l1619
  4626  05DF                     u205_20:
  4627  05DF                     i1l1617:
  4628  05DF  0866               	movf	___fladd@bexp,w
  4629  05E0  1D03               	btfss	3,2
  4630  05E1  2DE3               	goto	u206_21
  4631  05E2  2DE4               	goto	u206_20
  4632  05E3                     u206_21:
  4633  05E3  2DF2               	goto	i1l1625
  4634  05E4                     u206_20:
  4635  05E4                     i1l1619:
  4636  05E4  3000               	movlw	0
  4637  05E5  00D7               	movwf	___fladd@b+3
  4638  05E6  3000               	movlw	0
  4639  05E7  00D6               	movwf	___fladd@b+2
  4640  05E8  3000               	movlw	0
  4641  05E9  00D5               	movwf	___fladd@b+1
  4642  05EA  3000               	movlw	0
  4643  05EB  00D4               	movwf	___fladd@b
  4644  05EC                     i1l1621:
  4645  05EC  0866               	movf	___fladd@bexp,w
  4646  05ED  1D03               	btfss	3,2
  4647  05EE  2DF0               	goto	u207_21
  4648  05EF  2DF1               	goto	u207_20
  4649  05F0                     u207_21:
  4650  05F0  2DF2               	goto	i1l1625
  4651  05F1                     u207_20:
  4652  05F1                     i1l1623:
  4653  05F1  01E4               	clrf	___fladd@signs
  4654  05F2                     i1l1625:
  4655  05F2  1C66               	btfss	___fladd@bexp,0
  4656  05F3  2DF5               	goto	u208_21
  4657  05F4  2DF6               	goto	u208_20
  4658  05F5                     u208_21:
  4659  05F5  2DF8               	goto	i1l1629
  4660  05F6                     u208_20:
  4661  05F6                     i1l1627:
  4662  05F6  17D6               	bsf	___fladd@b+2,7
  4663  05F7  2DFC               	goto	i1l522
  4664  05F8                     i1l1629:
  4665  05F8  307F               	movlw	127
  4666  05F9  00DC               	movwf	??___fladd
  4667  05FA  085C               	movf	??___fladd,w
  4668  05FB  05D6               	andwf	___fladd@b+2,f
  4669  05FC                     i1l522:
  4670  05FC  0866               	movf	___fladd@bexp,w
  4671  05FD  00DC               	movwf	??___fladd
  4672  05FE  1003               	clrc
  4673  05FF  0C5C               	rrf	??___fladd,w
  4674  0600  00DD               	movwf	??___fladd+1
  4675  0601  085D               	movf	??___fladd+1,w
  4676  0602  00D7               	movwf	___fladd@b+3
  4677  0603                     i1l1631:
  4678  0603  1FE4               	btfss	___fladd@signs,7
  4679  0604  2E06               	goto	u209_21
  4680  0605  2E07               	goto	u209_20
  4681  0606                     u209_21:
  4682  0606  2E08               	goto	i1l523
  4683  0607                     u209_20:
  4684  0607                     i1l1633:
  4685  0607  17D7               	bsf	___fladd@b+3,7
  4686  0608                     i1l523:
  4687  0608                     i1l493:
  4688  0608  0008               	return
  4689  0609                     __end_of___fladd:
  4690  007E                     btemp	set	126	;btemp
  4691  007E                     wtemp0	set	126
  4692                           
  4693                           	psect	idloc
  4694                           
  4695                           ;Config register IDLOC0 @ 0x2000
  4696                           ;	unspecified, using default values
  4697  2000                     	org	8192
  4698  2000  3FFF               	dw	16383
  4699                           
  4700                           ;Config register IDLOC1 @ 0x2001
  4701                           ;	unspecified, using default values
  4702  2001                     	org	8193
  4703  2001  3FFF               	dw	16383
  4704                           
  4705                           ;Config register IDLOC2 @ 0x2002
  4706                           ;	unspecified, using default values
  4707  2002                     	org	8194
  4708  2002  3FFF               	dw	16383
  4709                           
  4710                           ;Config register IDLOC3 @ 0x2003
  4711                           ;	unspecified, using default values
  4712  2003                     	org	8195
  4713  2003  3FFF               	dw	16383
  4714                           
  4715                           	psect	config
  4716                           
  4717                           ;Config register CONFIG1 @ 0x2007
  4718                           ;	Oscillator Selection bits
  4719                           ;	FOSC = INTRC_NOCLKOUT, INTOSCIO oscillator: I/O function on RA6/OSC2/CLKOUT pin, I/O f
      +                          unction on RA7/OSC1/CLKIN
  4720                           ;	Watchdog Timer Enable bit
  4721                           ;	WDTE = OFF, WDT disabled and can be enabled by SWDTEN bit of the WDTCON register
  4722                           ;	Power-up Timer Enable bit
  4723                           ;	PWRTE = OFF, PWRT disabled
  4724                           ;	RE3/MCLR pin function select bit
  4725                           ;	MCLRE = OFF, RE3/MCLR pin function is digital input, MCLR internally tied to VDD
  4726                           ;	Code Protection bit
  4727                           ;	CP = OFF, Program memory code protection is disabled
  4728                           ;	Data Code Protection bit
  4729                           ;	CPD = OFF, Data memory code protection is disabled
  4730                           ;	Brown Out Reset Selection bits
  4731                           ;	BOREN = OFF, BOR disabled
  4732                           ;	Internal External Switchover bit
  4733                           ;	IESO = OFF, Internal/External Switchover mode is disabled
  4734                           ;	Fail-Safe Clock Monitor Enabled bit
  4735                           ;	FCMEN = OFF, Fail-Safe Clock Monitor is disabled
  4736                           ;	Low Voltage Programming Enable bit
  4737                           ;	LVP = OFF, RB3 pin has digital I/O, HV on MCLR must be used for programming
  4738                           ;	In-Circuit Debugger Mode bit
  4739                           ;	DEBUG = 0x1, unprogrammed default
  4740  2007                     	org	8199
  4741  2007  20D4               	dw	8404
  4742                           
  4743                           ;Config register CONFIG2 @ 0x2008
  4744                           ;	Brown-out Reset Selection bit
  4745                           ;	BOR4V = BOR40V, Brown-out Reset set to 4.0V
  4746                           ;	Flash Program Memory Self Write Enable bits
  4747                           ;	WRT = OFF, Write protection off
  4748  2008                     	org	8200
  4749  2008  3FFF               	dw	16383

Data Sizes:
    Strings     0
    Constant    0
    Data        0
    BSS         7
    Persistent  0
    Stack       0

Auto Spaces:
    Space          Size  Autos    Used
    COMMON           14     14      14
    BANK0            80     79      79
    BANK1            80     18      25
    BANK3            96      0       0
    BANK2            96      0       0

Pointer List with Targets:

    None.

Critical Paths under _main in COMMON

    None.

Critical Paths under _isr in COMMON

    _map->___xxtofl
    ___fltol->___xxtofl
    ___flmul->___xxtofl
    ___fldiv->___xxtofl
    ___fladd->___xxtofl

Critical Paths under _main in BANK0

    None.

Critical Paths under _isr in BANK0

    _isr->_map
    _map->___fltol
    ___fltol->___fladd
    ___flmul->___fldiv
    ___fladd->___flmul

Critical Paths under _main in BANK1

    _main->_setup

Critical Paths under _isr in BANK1

    _isr->_map
    _map->___fltol

Critical Paths under _main in BANK3

    None.

Critical Paths under _isr in BANK3

    None.

Critical Paths under _main in BANK2

    None.

Critical Paths under _isr in BANK2

    None.

Call Graph Tables:

 ---------------------------------------------------------------------------------
 (Depth) Function   	        Calls       Base Space   Used Autos Params    Refs
 ---------------------------------------------------------------------------------
 (0) _main                                                 1     1      0       0
                                             17 BANK1      1     1      0
                              _setup
 ---------------------------------------------------------------------------------
 (1) _setup                                                1     1      0       0
                                             16 BANK1      1     1      0
 ---------------------------------------------------------------------------------
 Estimated maximum stack depth 1
 ---------------------------------------------------------------------------------
 (Depth) Function   	        Calls       Base Space   Used Autos Params    Refs
 ---------------------------------------------------------------------------------
 (2) _isr                                                  5     5      0    7645
                                             11 BANK1      5     5      0
                                _map
 ---------------------------------------------------------------------------------
 (3) _map                                                  7     1      6    7645
                                             78 BANK0      1     1      0
                                              5 BANK1      6     0      6
                            ___fladd
                            ___fldiv
                            ___flmul
                            ___fltol
                           ___xxtofl
 ---------------------------------------------------------------------------------
 (4) ___xxtofl                                            14    10      4     626
                                              0 COMMON    14    10      4
 ---------------------------------------------------------------------------------
 (4) ___fltol                                             11     7      4     305
                                             72 BANK0      6     2      4
                                              0 BANK1      5     5      0
                            ___fladd (ARG)
                            ___fldiv (ARG)
                            ___flmul (ARG)
                           ___xxtofl (ARG)
 ---------------------------------------------------------------------------------
 (4) ___flmul                                             26    18      8    2417
                                             26 BANK0     26    18      8
                          __Umul8_16
                            ___fldiv (ARG)
                           ___xxtofl (ARG)
 ---------------------------------------------------------------------------------
 (5) __Umul8_16                                            9     7      2     799
                                              0 COMMON     9     7      2
 ---------------------------------------------------------------------------------
 (4) ___fldiv                                             26    18      8    1273
                                              0 BANK0     26    18      8
                           ___xxtofl (ARG)
 ---------------------------------------------------------------------------------
 (4) ___fladd                                             20    12      8    2262
                                             52 BANK0     20    12      8
                            ___fldiv (ARG)
                            ___flmul (ARG)
                           ___xxtofl (ARG)
 ---------------------------------------------------------------------------------
 Estimated maximum stack depth 5
 ---------------------------------------------------------------------------------

 Call Graph Graphs:

 _main (ROOT)
   _setup

 _isr (ROOT)
   _map
     ___fladd
       ___fldiv (ARG)
         ___xxtofl (ARG)
       ___flmul (ARG)
         __Umul8_16
         ___fldiv (ARG)
         ___xxtofl (ARG)
       ___xxtofl (ARG)
     ___fldiv
     ___flmul
     ___fltol
       ___fladd (ARG)
       ___fldiv (ARG)
       ___flmul (ARG)
       ___xxtofl (ARG)
     ___xxtofl

 Address spaces:
Name               Size   Autos  Total    Cost      Usage
BITCOMMON            E      0       0       0        0.0%
EEDATA             100      0       0       0        0.0%
NULL                 0      0       0       0        0.0%
CODE                 0      0       0       0        0.0%
COMMON               E      E       E       1      100.0%
BITSFR0              0      0       0       1        0.0%
SFR0                 0      0       0       1        0.0%
BITSFR1              0      0       0       2        0.0%
SFR1                 0      0       0       2        0.0%
STACK                0      0       0       2        0.0%
ABS                  0      0      76       3        0.0%
BITBANK0            50      0       0       4        0.0%
BITSFR3              0      0       0       4        0.0%
SFR3                 0      0       0       4        0.0%
BANK0               50     4F      4F       5       98.8%
BITSFR2              0      0       0       5        0.0%
SFR2                 0      0       0       5        0.0%
BITBANK1            50      0       0       6        0.0%
BANK1               50     12      19       7       31.2%
BITBANK3            60      0       0       8        0.0%
BANK3               60      0       0       9        0.0%
BITBANK2            60      0       0      10        0.0%
BANK2               60      0       0      11        0.0%
DATA                 0      0      76      12        0.0%


Microchip Technology PIC Macro Assembler V2.35 build 20211206165544 
Symbol Table                                                                                   Sat Apr 30 21:01:37 2022

           ___fldiv@aexp 0039             ___fldiv@bexp 0038             ___fldiv@sign 0031  
                     l95 0CED                       l97 0CF1                       l98 0D0B  
    __Umul8_16@word_mpld 0076                      _PR2 0092                      _adl 00B6  
                    _map 0DA8                      _isr 0F14             ___flmul@aexp 004C  
           ___flmul@bexp 004D             ___flmul@sign 0047             ___flmul@temp 0052  
           ___flmul@prod 004E             ___fltol@exp1 006D                     l2001 0CDB  
                   l2011 0CE8                     l2003 0CDF                     l2021 0D09  
                   l2013 0CE9                     l2005 0CE1                     l2023 0D0A  
                   l2015 0CEA                     l2007 0CE5                     l2017 0CEC  
                   l2009 0CE7                     l2019 0D05                     l2071 0C5C  
                   l2063 0C40                     l2081 0C85                     l2073 0C64  
                   l2065 0C45                     l2075 0C71                     l2067 0C4B  
                   l2085 0C8A                     l2069 0C56                     l2087 0C91  
                   l2079 0C78                     l1971 0CA5                     l1981 0CB6  
                   l1973 0CAB                     l1965 0C98                     ?_map 00A5  
                   l1991 0CCB                     l1983 0CBA                     l1975 0CAC  
                   l1967 0C9C                     l1993 0CCE                     l1985 0CBE  
                   l1977 0CB2                     l1969 0C9D                     l1995 0CCF  
                   l1987 0CC1                     l1979 0CB5                     l1997 0CD5  
                   l1989 0CC4                     l1999 0CD7                     ?_isr 0070  
                   _CCPR 00B4                     _T0IF 005A                     u3000 0C85  
                   u3001 0C84                     u3017 0C60                     u3027 0C8E  
                   u3037 0CC8                     u2900 0CF1                     u2901 0CF0  
                   u2970 0C4B                     u2971 0C4A                     u2980 0C56  
                   u2981 0C55                     u2990 0C71                     u2991 0C70  
                   i1l76 0FEF                     i1l77 0FF2                     i1l78 0FF5  
                   _TMR0 0001                     _main 0C40                     map@x 006E  
                   btemp 007E                     start 0010          ___fldiv@new_exp 0032  
                  ??_map 007E                    ??_isr 00AB            ___fltol@sign1 006C  
        __end_of___fladd 0609                    ?_main 0070          __end_of___fldiv 07E6  
        __end_of___flmul 0381          __end_of___fltol 0DA8                    _ANSEL 0188  
                  _CCPRx 00B2                    i1l101 0E59                    i1l501 0556  
                  i1l511 059C                    i1l505 057A                    i1l522 05FC  
                  i1l514 05DA                    i1l523 0608                    i1l380 0D92  
                  i1l620 0E7C                    i1l373 0DA7                    i1l622 0F13  
                  i1l383 0DA7                    i1l480 03E4                    i1l560 07D9  
                  i1l552 0757                    i1l536 0665                    i1l633 0EDD  
                  i1l538 07E5                    i1l634 0EE9                    i1l626 0EC1  
                  i1l484 048B                    i1l493 0608                    i1l486 0462  
                  i1l558 07C9                    i1l582 02EC                    i1l576 0380  
                  i1l595 0C2D                    i1l588 0374                    i1l597 0C3F  
                  _PORTA 0005                    _PORTC 0007                    _TRISA 0085  
                  _conta 00B8                    map@x0 00A5                    map@x1 00A6  
                  map@y0 00A7                    map@y1 00A9                    _setup 0C98  
                  pclath 000A                    status 0003                    wtemp0 007E  
        __initialization 0013             __end_of_main 0C98                   ??_main 00B1  
                 _ADRESH 001E                   _CCPR1L 0015                   _CCPR2L 001B  
                 ?_setup 0070                   _ANSELH 0189                   i1l2031 0F40  
                 i1l1401 0C3B                   i1l2041 0F96                   i1l2033 0F4E  
                 i1l2025 0F14                   i1l1411 0D26                   i1l2043 0FA7  
                 i1l2035 0F60                   i1l2027 0F1A                   i1l2051 0FD4  
                 i1l1501 040A                   i1l1421 0D5A                   i1l1413 0D4B  
                 i1l1405 0D0C                   i1l2053 0FD8                   i1l2037 0F6D  
                 i1l2045 0FBA                   i1l2029 0F25                   i1l1511 041E  
                 i1l1503 040E                   i1l1415 0D4C                   i1l1407 0D1D  
                 i1l2055 0FDE                   i1l2047 0FC7                   i1l2039 0F88  
                 u200_20 05A0                   u200_21 059F                   i1l1601 0593  
                 i1l1521 042F                   i1l1513 0422                   i1l1505 0412  
                 i1l1441 0381                   i1l1417 0D54                   i1l2057 0FEB  
                 i1l2049 0FD2                   i1l1611 05B4                   i1l1603 0599  
                 i1l1531 0475                   i1l1523 0446                   i1l1515 0426  
                 i1l1507 0416                   i1l1451 0398                   i1l1443 0388  
                 i1l1435 0D7F                   i1l1427 0D62                   i1l1419 0D56  
                 i1l2059 0FF3                   i1l1621 05EC                   i1l1613 05B8  
                 i1l1541 0494                   i1l1533 0476                   i1l1525 0466  
                 i1l1517 042A                   i1l1509 041A                   i1l1461 03B0  
                 i1l1453 039D                   i1l1445 038E                   i1l1701 06C5  
                 i1l1437 0D97                   i1l1429 0D78                   i1l1631 0603  
                 i1l1623 05F1                   i1l1615 05D6                   i1l1607 05A1  
                 i1l1551 04BC                   i1l1535 047F                   i1l1527 046F  
                 i1l1519 042E                   i1l1471 03C6                   i1l1463 03B5  
                 i1l1455 03A5                   i1l1447 0392                   i1l1711 06F7  
                 i1l1703 06D7                   i1l1391 0C1A                   i1l1439 0D9C  
                 u201_20 05A6                   i1l1633 0607                   i1l1625 05F2  
                 i1l1617 05DF                   i1l1609 05A6                   u201_21 05A5  
                 i1l1561 04D5                   i1l1553 04C5                   i1l1545 049D  
                 i1l1529 0471                   i1l1537 0483                   i1l1481 03DA  
                 i1l1473 03C7                   i1l1465 03BB                   i1l1457 03A6  
                 i1l1449 0393                   i1l1721 0718                   i1l1713 06F8  
                 i1l1705 06DB                   i1l1641 061A                   i1l1393 0C1C  
                 i1l1801 005D                   i1l1627 05F6                   i1l1619 05E4  
                 i1l1571 0539                   i1l1555 04C7                   i1l1547 04B4  
                 i1l1539 048F                   i1l1563 04DA                   i1l1491 03F6  
                 i1l1475 03CC                   i1l1483 03DC                   i1l1467 03BC  
                 i1l1459 03A8                   i1l1731 0731                   i1l1723 071A  
                 i1l1715 0706                   i1l1707 06DC                   i1l1651 062E  
                 i1l1643 061B                   i1l1635 0609                   i1l1395 0C23  
                 i1l1811 0072                   i1l1803 005E                   i1l1629 05F8  
                 i1l1581 056C                   i1l1565 04F0                   i1l1573 0548  
                 i1l1557 04CB                   i1l1549 04B8                   i1l1493 03FA  
                 i1l1485 03EA                   i1l1477 03D1                   i1l1469 03C2  
                 i1l1741 0754                   i1l1725 0723                   i1l1733 0737  
                 i1l1709 06E5                   i1l1717 070A                   i1l1661 0647  
                 i1l1645 0620                   i1l1653 0630                   i1l1637 0610  
                 i1l1397 0C27                   i1l1901 034E                   i1l1821 008D  
                 i1l1813 007A                   i1l1805 0063                   i1l1591 0583  
                 i1l1583 0575                   i1l1575 055E                   i1l1567 052E  
                 i1l1559 04CC                   i1l1495 03FE                   i1l1487 03EE  
                 i1l1479 03D9                   i1l1751 0773                   i1l1735 073B  
                 i1l1727 0727                   i1l1719 0710                   i1l1671 065B  
                 i1l1663 0648                   i1l1655 0638                   i1l1647 0625  
                 i1l1639 0616                   i1l1399 0C36                   i1l1911 036D  
                 i1l1903 0358                   i1l1831 010F                   i1l1823 009D  
                 i1l1815 007F                   i1l1807 0068                   u202_20 05B8  
                 u210_20 061A                   u202_21 05B7                   i1l1593 0588  
                 i1l1585 0579                   i1l1577 0563                   i1l1569 0534  
                 i1l1497 0402                   i1l1489 03F2                   i1l1761 07BC  
                 i1l1753 078C                   i1l1745 075C                   i1l1737 073C  
                 i1l1729 0728                   i1l1665 064D                   i1l1673 065D  
                 i1l1657 063D                   i1l1649 062D                   u210_21 0619  
                 i1l1913 0378                   i1l1905 035A                   i1l1841 017D  
                 i1l1833 012B                   i1l1825 00AA                   i1l1817 0084  
                 i1l1809 0070                   i1l1921 0E64                   i1l1587 057E  
                 i1l1595 058A                   i1l1499 0406                   i1l1771 07D5  
                 i1l1763 07C0                   i1l1747 0761                   i1l1755 0792  
                 i1l1739 0740                   i1l1691 06A6                   i1l1675 066D  
                 i1l1683 0686                   i1l1667 0652                   i1l1659 0643  
                 i1l1907 0368                   i1l1851 020D                   i1l1843 018D  
                 i1l1835 0147                   i1l1827 00C7                   i1l1931 0E92  
                 i1l1923 0E74                   i1l1589 0581                   i1l1597 058E  
                 i1l1765 07C8                   i1l1757 079F                   i1l1749 076F  
                 i1l1693 06AE                   i1l1685 068B                   i1l1677 0679  
                 i1l1669 065A                   i1l1909 036C                   i1l1861 02A1  
                 i1l1853 021D                   i1l1845 01AA                   i1l1837 0150  
                 i1l1829 00E3                   i1l1781 002D                   i1l1941 0EC8  
                 i1l1933 0E9F                   i1l1925 0E84                   i1l1917 0E5B  
                 i1l1599 058F                   i1l1767 07CF                   i1l1759 07AD  
                 i1l1695 06B6                   i1l1679 067D                   i1l1871 02C6  
                 i1l1863 02AF                   i1l1855 024A                   i1l1847 01C3  
                 i1l1839 0160                   i1l1791 0044                   i1l1783 0031  
                 i1l1951 0F01                   i1l1943 0ED3                   i1l1935 0EA6  
                 i1l1919 0E60                   u203_20 05C7                   u211_20 0620  
                 i1l1769 07D3                   i1l1697 06BE                   i1l1689 0694  
                 u211_21 061F                   i1l1881 02E9                   i1l1865 02B8  
                 i1l1873 02CC                   i1l1857 0270                   i1l1849 01E0  
                 i1l1793 0046                   i1l1785 0032                   i1l1777 0020  
                 i1l1953 0F06                   i1l1945 0ED7                   i1l1937 0EAA  
                 i1l1929 0E8D                   i1l1961 0DAB                   i1l1699 06C0  
                 i1l1891 0308                   i1l1875 02D0                   i1l1867 02BC  
                 i1l1859 0298                   i1l1795 004E                   i1l1787 0037  
                 i1l1779 0027                   i1l1955 0F0A                   i1l1947 0EE1  
                 i1l1939 0EB8                   u203_25 05C2                   i1l1893 0321  
                 i1l1885 02F1                   i1l1877 02D1                   i1l1869 02BD  
                 i1l1797 0053                   i1l1789 003C                   i1l1957 0F0B  
                 i1l1949 0EEB                   i1l1887 02F6                   i1l1895 0327  
                 i1l1879 02D5                   i1l1799 0059                   u204_20 05D6  
                 u212_20 0625                   u204_21 05D5                   u212_21 0624  
                 i1l1897 0334                   i1l1889 0304                   i1l1899 033F  
                 u220_25 06D0                   u205_20 05DF                   u221_20 06DB  
                 u213_20 0647                   u205_21 05DE                   u221_21 06DA  
                 u213_21 0646                   u206_20 05E4                   u230_20 0740  
                 u214_20 064D                   u206_21 05E3                   u230_21 073F  
                 u214_21 064C                   u222_25 06DE                   u207_20 05F1  
                 u231_20 0754                   u223_20 06F7                   u215_20 0652  
                 u151_20 0C27                   u207_21 05F0                   u231_21 0753  
                 u223_21 06F6                   u215_21 0651                   u151_21 0C26  
                 u223_25 06F3                   u208_20 05F6                   u232_20 075B  
                 u224_20 0710                   u216_20 066D                   u240_20 0037  
                 u160_20 0D7E                   u208_21 05F5                   u232_21 075A  
                 u224_21 070F                   u216_21 066C                   u240_21 0036  
                 u160_21 0D7D                   u152_25 0C2E                   u209_20 0607  
                 u233_20 0761                   u225_20 0718                   u217_20 068B  
                 u153_20 0C3B                   u241_20 003C                   u209_21 0606  
                 u233_21 0760                   u225_21 0717                   u217_21 068A  
                 u153_21 0C3A                   u241_21 003B                   u161_25 0D83  
                 u170_20 03D1                   u234_20 0773                   u218_20 06C5  
                 u242_20 005D                   u162_20 0D97                   u154_20 0D1D  
                 u170_21 03D0                   u234_21 0772                   u218_21 06C4  
                 u250_21 0139                   u242_21 005C                   u162_21 0D96  
                 u154_21 0D1C                   u250_22 0140                   u250_23 0147  
                 u226_25 071C                   u171_20 03EA                   u235_20 0782  
                 u227_20 0727                   u243_20 0063                   u163_20 0D9C  
                 u155_20 0D42                   u171_21 03E9                   u227_21 0726  
                 u243_21 0062                   u163_21 0D9B                   u235_25 077D  
                 u219_25 06C7                   u251_25 0149                   u155_25 0D3D  
                 u180_20 048F                   u172_20 03EE                   u164_20 0392  
                 u236_20 079F                   u260_20 027E                   u244_20 0068  
                 u156_20 0D5A                   u180_21 048E                   u172_21 03ED  
                 u164_21 0391                   u236_21 079E                   u252_21 016F  
                 u244_21 0067                   u156_21 0D59                   u252_22 0176  
                 u252_23 017D                   u236_25 079B                   u228_25 072A  
                 u260_25 0279                   u181_20 0494                   u173_20 0446  
                 u165_20 0398                   u237_20 07BC                   u229_20 073B  
                 u245_20 007F                   u157_20 0D61                   u181_21 0493  
                 u173_21 0445                   u165_21 0397                   u237_21 07BB  
                 u229_21 073A                   u261_21 028A                   u253_21 019C  
                 u245_21 007E                   u157_21 0D60                   u261_22 0291  
                 u253_22 01A3                   u261_23 0298                   u253_23 01AA  
                 u173_25 0442                   u237_25 07B8                   u190_20 0539  
                 u174_20 0451                   u166_20 039D                   u238_20 07D3  
                 u270_20 02F6                   u246_20 0084                   u190_21 0538  
                 u182_21 04A6                   u174_21 044F                   u166_21 039C  
                 u238_21 07D2                   u270_21 02F5                   u246_21 0083  
                 u182_22 04AD                   u182_23 04B4                   u262_25 029A  
                 u254_25 01AC                   u158_25 0D63                   u191_20 055E  
                 u183_20 04B8                   u175_20 0452                   u167_20 03BB  
                 u271_20 0308                   u239_20 0031                   u159_20 0D77  
                 u191_21 055D                   u183_21 04B7                   u167_21 03BA  
                 u271_21 0307                   u255_21 01D2                   u247_21 00D5  
                 u239_21 0030                   u159_21 0D76                   u255_22 01D9  
                 u247_22 00DC                   u255_23 01E0                   u247_23 00E3  
                 u263_25 02B1                   u192_20 0563                   u184_20 04BC  
                 u176_20 0466                   u168_20 03C6                   u272_20 0317  
                 u264_20 02BC                   u280_20 0EA5                   u192_21 0562  
                 u184_21 04BB                   u176_21 0465                   u168_21 03C5  
                 u264_21 02BB                   u256_21 01FF                   u248_21 00F1  
                 u280_21 0EA4                   u256_22 0206                   u248_22 00F8  
                 u256_23 020D                   u248_23 00FF                   u272_25 0312  
                 u185_20 04CB                   u177_20 0475                   u169_20 03CC  
                 u273_20 0334                   u185_21 04CA                   u177_21 0474  
                 u169_21 03CB                   u273_21 0333                   u257_21 022C  
                 u249_21 011D                   u257_22 0233                   u249_22 0124  
                 u257_23 023A                   u249_23 012B                   u193_25 056E  
                 u273_25 0330                   u265_25 02BF                   u281_25 0EB9  
                 u194_20 0579                   u274_20 034E                   u266_20 02D0  
                 u258_20 0256                   u282_20 0EC7                   u194_21 0578  
                 u274_21 034D                   u266_21 02CF                   u282_21 0EC6  
                 u186_25 04CE                   u178_25 0478                   u274_25 034A  
                 u258_25 0251                   u195_20 057E                   u187_20 04F0  
                 u179_20 048B                   u275_20 036C                   u267_20 02D5  
                 u291_20 0F1A                   u195_21 057D                   u187_21 04EF  
                 u179_21 048A                   u275_21 036B                   u267_21 02D4  
                 u259_21 0262                   u291_21 0F19                   u259_22 0269  
                 u187_23 04EC                   u259_23 0270                   u283_25 0ECC  
                 u196_20 0588                   u268_20 02E9                   u284_20 0ED7  
                 u276_20 0E60                   u292_20 0F25                   u196_21 0587  
                 u188_21 0507                   u268_21 02E8                   u284_21 0ED6  
                 u276_21 0E5F                   u292_21 0F24                   u188_22 0508  
                 u188_23 050D                   u188_24 050E                   u188_25 0513  
                 u188_26 0514                   u197_20 058E                   u189_20 051B  
                 u269_20 02F0                   u285_20 0EDD                   u277_20 0E64  
                 u293_20 0F6D                   u197_21 058D                   u189_21 051C  
                 u269_21 02EF                   u285_21 0EDC                   u277_21 0E63  
                 u293_21 0F6C                   u189_22 0521                   u189_23 0522  
                 u198_20 0593                   u286_20 0EE1                   u278_20 0E84  
                 u294_20 0FC7                   u198_21 0592                   u286_21 0EE0  
                 u278_21 0E83                   u294_21 0FC6                   u199_20 0599  
                 u287_20 0EF6                   u295_20 0FD8                   u199_21 0598  
                 u295_21 0FD7                   u287_25 0EF1                   u279_25 0E97  
                 u288_20 0F06                   u296_20 0FEB                   u288_21 0F05  
                 u296_21 0FEA                   u296_25 0FE7                   u289_20 0F0A  
                 u289_21 0F09         __end_of___xxtofl 0F14                ??___fladd 005C  
              ??___fldiv 0028                ??___flmul 0042                ??___fltol 00A0  
                 saved_w 007E             ___xxtofl@arg 007A             ___xxtofl@exp 0079  
           ___xxtofl@val 0070  __end_of__initialization 001C               ___fltol@f1 0068  
         __pcstackCOMMON 0070            __end_of_setup 0D0C           _OPTION_REGbits 0081  
                ??_setup 00B0               __pbssBANK1 00B2        __end_of__Umul8_16 0C40  
             __pmaintext 0C40               __pintentry 0004                  _CCP1CON 0017  
                _CCP2CON 001D                ?___xxtofl 0070                  ___fladd 0381  
                ___fldiv 0609                  ___flmul 0020                  ___fltol 0D0C  
                __ptext1 0C98                  __ptext2 0F14                  __ptext3 0DA8  
                __ptext4 0E5A                  __ptext5 0D0C                  __ptext6 0020  
                __ptext7 0C19                  __ptext8 0609                  __ptext9 0381  
              _T2CONbits 0012               ??___xxtofl 0074     end_of_initialization 001C  
              _PORTCbits 0007              ___fladd@grs 0067            ___xxtofl@sign 0078  
              _TRISCbits 0087              ___fldiv@grs 0034              ___fldiv@rem 002D  
            ___flmul@grs 0048              _CCP1CONbits 0017              _CCP2CONbits 001D  
    start_initialization 0013              __end_of_map 0E5A              __end_of_isr 1000  
              __Umul8_16 0C19                ___fladd@a 0058                ___fladd@b 0054  
              ___fldiv@a 0020                ___fldiv@b 0024                ___flmul@a 003E  
              ___flmul@b 003A                ___latbits 0002            __pcstackBANK0 0020  
          __pcstackBANK1 00A0                 ?___fladd 0054                 ?___fldiv 0020  
               ?___flmul 003A                 ?___fltol 0068               ?__Umul8_16 0070  
      interrupt_function 0004                 _PIE1bits 008C                 _PIR1bits 000C  
             _ADCON0bits 001F               _ADCON1bits 009F              ??__Umul8_16 0072  
               ___xxtofl 0E5A               _INTCONbits 000B                 intlevel1 0000  
             _OSCCONbits 008F   __Umul8_16@multiplicand 0070            ___fladd@signs 0064  
           ___fladd@aexp 0065             ___fladd@bexp 0066     __Umul8_16@multiplier 0078  
      __Umul8_16@product 0074  
